(dp0
S'0-9090-305'
p1
(lp2
F0.019266685824104575
aI19
asS'0-4060304'
p3
(lp4
F-0.014307262422657563
aI6
asS'0-4060303'
p5
(lp6
F-0.037391218239431166
aI10
asS'0-5070-604'
p7
(lp8
F0.21356192189751994
aI153
asS'0-8060403'
p9
(lp10
F-0.07313520548060397
aI2
asS'0-2050-403'
p11
(lp12
F0.2677277180531928
aI58
asS'0-2050-404'
p13
(lp14
F0.013545777628105986
aI20
asS'0-4070005'
p15
(lp16
F-0.028608424016453082
aI3
asS'0-4070004'
p17
(lp18
F0.016534052073409567
aI43
asS'0-4070003'
p19
(lp20
F0.01572559654694125
aI59
asS'0-8110-705'
p21
(lp22
F0.60972200511906
aI25
asS'0-6050-104'
p23
(lp24
F-0.06768428149786627
aI167
asS'0-4060-304'
p25
(lp26
F0.15970462309480965
aI107
asS'0-8080-508'
p27
(lp28
F0.05658408245202998
aI3
asS'0-8110-704'
p29
(lp30
F0.8188397736915086
aI19
asS'0-8080-503'
p31
(lp32
F-0.09467694661829905
aI14
asS'0-8080-505'
p33
(lp34
F-0.029846626067987297
aI76
asS'0-8080-504'
p35
(lp36
F0.15628811662669692
aI124
asS'0-8080-507'
p37
(lp38
F-0.08921846307572168
aI41
asS'0-8080-506'
p39
(lp40
F0.2035478669650982
aI60
asS'0-9050003'
p41
(lp42
F-0.22751341716274168
aI35
asS'0-10070-409'
p43
(lp44
F-0.42169635851806486
aI79
asS'0-10070-408'
p45
(lp46
F-0.3336482448759162
aI172
asS'0-10070-407'
p47
(lp48
F-0.36567923442289796
aI317
asS'0-10070-406'
p49
(lp50
F-0.30906348273711015
aI323
asS'0-10070-405'
p51
(lp52
F-0.27057706543930726
aI229
asS'0-10070-404'
p53
(lp54
F-0.19137919668556336
aI138
asS'0-10070-403'
p55
(lp56
F-0.2456702500249489
aI11
asS'0-6070-103'
p57
(lp58
F0.014360954891719322
aI33
asS'0-6070-407'
p59
(lp60
F0.08439728599688233
aI7
asS'0-6070-406'
p61
(lp62
F0.008065194983127666
aI11
asS'0-6070-405'
p63
(lp64
F0.20939421394719018
aI58
asS'0-6070-404'
p65
(lp66
F0.18850197008762276
aI126
asS'0-6070-403'
p67
(lp68
F0.05437445843665517
aI115
asS'0-3070-103'
p69
(lp70
F0.1425323242583485
aI163
asS'0-3070-105'
p71
(lp72
F-0.0007156947078150767
aI4
asS'0-6070-107'
p73
(lp74
F0.0647386415509584
aI1
asS'0-1060303'
p75
(lp76
F0.028192405956978674
aI155
asS'0-1060304'
p77
(lp78
F-0.032026579369582545
aI5
asS'0-2070-104'
p79
(lp80
F0.004409664771884869
aI23
asS'0-9050-406'
p81
(lp82
F-0.23853465778773586
aI10
asS'0-10050-609'
p83
(lp84
F0.04418980461505714
aI1
asS'0-10050-608'
p85
(lp86
F0.08059448155536111
aI1
asS'0-6060-404'
p87
(lp88
F0.24952670889540962
aI126
asS'0-6060-405'
p89
(lp90
F0.10303421599903256
aI57
asS'0-6060-406'
p91
(lp92
F0.03770437870931748
aI16
asS'0-6060-407'
p93
(lp94
F0.039310658781700286
aI1
asS'0-9050-403'
p95
(lp96
F-0.5610087864515994
aI4
asS'0-10050-607'
p97
(lp98
F-0.028574435119570654
aI1
asS'0-10050-606'
p99
(lp100
F0.13250542591751327
aI1
asS'0-10050-605'
p101
(lp102
F-0.13702391544850825
aI1
asS'0-10050-604'
p103
(lp104
F-0.07129548054344755
aI1
asS'0-6080-204'
p105
(lp106
F0.013765869883903931
aI28
asS'0-6080-205'
p107
(lp108
F0.08471027134276164
aI24
asS'0-6080-203'
p109
(lp110
F0.1738004528237476
aI19
asS'0-5090-303'
p111
(lp112
F0.1478683031815268
aI1
asS'0-9050-408'
p113
(lp114
F-0.6203761507512808
aI3
asS'0-5090-304'
p115
(lp116
F-0.07423144807391509
aI8
asS'00070303'
p117
(lp118
F-0.0161152770301265
aI4
asS'0-7110-703'
p119
(lp120
F0.004297818837935452
aI1
asS'0-7110-704'
p121
(lp122
F0.8024826379401035
aI7
asS'0-1080-604'
p123
(lp124
F0.012297174226575244
aI4
asS'0-1080-603'
p125
(lp126
F0.8067665006903308
aI13
asS'01060403'
p127
(lp128
F0.007093291243147051
aI29
asS'0-7050-604'
p129
(lp130
F0.15363369424481824
aI27
asS'0-7050-605'
p131
(lp132
F0.08298570909658856
aI33
asS'0-5080-104'
p133
(lp134
F-0.02975755684164728
aI13
asS'0-7050-607'
p135
(lp136
F-0.11720778975405063
aI2
asS'0-5080-103'
p137
(lp138
F0.042785936970596586
aI9
asS'0-7050-603'
p139
(lp140
F-0.07766653092403775
aI3
asS'0-1070-204'
p141
(lp142
F-0.07797894952988427
aI6
asS'0-10060304'
p143
(lp144
F0.027293004381805278
aI2
asS'0-1070-203'
p145
(lp146
F0.1997720593984234
aI168
asS'0-8080-605'
p147
(lp148
F0.39146642351598926
aI152
asS'0-2060103'
p149
(lp150
F-0.018537006919433965
aI439
asS'0-2060105'
p151
(lp152
F-0.006445544573233333
aI2
asS'0-2060104'
p153
(lp154
F0.027084123049760316
aI144
asS'0-3050-703'
p155
(lp156
F0.09021273108129121
aI1
asS'0-3050-705'
p157
(lp158
F0.010008731769930904
aI7
asS'0-3050-704'
p159
(lp160
F0.8252918508012751
aI16
asS'0-7070-703'
p161
(lp162
F-0.02487767824973877
aI1
asS'0-7070-707'
p163
(lp164
F-0.17173777889523714
aI25
asS'0-7070-706'
p165
(lp166
F-0.07643852185418282
aI115
asS'0-7070-705'
p167
(lp168
F0.35489504926353765
aI230
asS'0-7070-704'
p169
(lp170
F0.630482453931701
aI590
asS'0-3060-205'
p171
(lp172
F0.009910263619589393
aI11
asS'0-3060-204'
p173
(lp174
F0.048115407606348935
aI110
asS'0-7070-708'
p175
(lp176
F0.05151862314636231
aI10
asS'0-3060-203'
p177
(lp178
F0.20235951627050341
aI321
asS'0-7060106'
p179
(lp180
F-0.03986059807924571
aI2
asS'0-7060104'
p181
(lp182
F-0.13984700449363813
aI45
asS'0-7060105'
p183
(lp184
F0.031111962343773215
aI48
asS'0-7060103'
p185
(lp186
F-0.053768767698558734
aI33
asS'0-5050106'
p187
(lp188
F0.002798257264786899
aI18
asS'0-5050105'
p189
(lp190
F-0.04013067484163558
aI153
asS'0-5050104'
p191
(lp192
F-0.15721032588074102
aI308
asS'0-5050103'
p193
(lp194
F-0.23585664473073223
aI223
asS'0-7060-103'
p195
(lp196
F-0.13772793566606611
aI67
asS'0-7060-106'
p197
(lp198
F0.0164251230294422
aI42
asS'0-7060-104'
p199
(lp200
F-0.05098861055019206
aI144
asS'0-7060-105'
p201
(lp202
F-0.1804288753812971
aI109
asS'0-2060-103'
p203
(lp204
F0.14364040730192895
aI391
asS'0-9060103'
p205
(lp206
F-0.0609160789308976
aI10
asS'0-9060104'
p207
(lp208
F-0.09256825530583876
aI79
asS'0-2060-104'
p209
(lp210
F0.0944726436610163
aI92
asS'0-9060106'
p211
(lp212
F0.00496619579689845
aI11
asS'0-2090-303'
p213
(lp214
F-0.07543433520441864
aI6
asS'0-9080-205'
p215
(lp216
F0.03338951888133486
aI25
asS'0-9080-204'
p217
(lp218
F-0.020343182143140265
aI22
asS'0-9080-206'
p219
(lp220
F0.06855898947638496
aI39
asS'0-9060-108'
p221
(lp222
F0.005513734608990073
aI1
asS'0-10090-508'
p223
(lp224
F0.03841500720930035
aI22
asS'0-10090-504'
p225
(lp226
F0.2527650784042842
aI19
asS'0-10090-505'
p227
(lp228
F-0.07703816595491236
aI33
asS'0-10090-506'
p229
(lp230
F-0.11667436228457406
aI28
asS'0-10090-507'
p231
(lp232
F0.03482282112204209
aI12
asS'0-10090-503'
p233
(lp234
F0.4190151215641947
aI3
asS'0-6050-704'
p235
(lp236
F0.4091692897209911
aI20
asS'0-8060-403'
p237
(lp238
F-0.10875760658285409
aI33
asS'0-4060-504'
p239
(lp240
F0.3908962127026561
aI98
asS'0-8060-406'
p241
(lp242
F-0.12304034725481049
aI88
asS'0-8060-407'
p243
(lp244
F-0.15784499519931444
aI31
asS'0-8060-404'
p245
(lp246
F-0.12293155793671051
aI136
asS'0-8060-405'
p247
(lp248
F-0.12761294422688904
aI155
asS'00050-404'
p249
(lp250
F-0.030837155827812934
aI1
asS'00050-403'
p251
(lp252
F0.19122027293730243
aI30
asS'0-6070-303'
p253
(lp254
F0.11098714168607807
aI128
asS'0-6070-304'
p255
(lp256
F0.07651396354028428
aI128
asS'0-10070-510'
p257
(lp258
F-0.3942677503450447
aI44
asS'0-6080-507'
p259
(lp260
F-0.033368435487609455
aI1
asS'0-6080-506'
p261
(lp262
F0.01367857683506532
aI2
asS'0-5070-506'
p263
(lp264
F0.0789600787369772
aI3
asS'0-5070-505'
p265
(lp266
F0.07163171901414361
aI37
asS'0-5070-504'
p267
(lp268
F0.2752262132091125
aI144
asS'0-5070-503'
p269
(lp270
F0.10620001394173226
aI130
asS'0-3070-403'
p271
(lp272
F0.2141319404739105
aI193
asS'0-9060-503'
p273
(lp274
F-0.34490200849643726
aI13
asS'0-9060-504'
p275
(lp276
F-0.19831213578221668
aI165
asS'00070-103'
p277
(lp278
F0.14847081872248238
aI102
asS'0-9060-506'
p279
(lp280
F-0.25052547601109
aI211
asS'0-9060-507'
p281
(lp282
F-0.3364653643250349
aI91
asS'0-9060-508'
p283
(lp284
F-0.08579171595789367
aI72
asS'0-1050103'
p285
(lp286
F-0.008759267455004327
aI572
asS'0-1050104'
p287
(lp288
F-0.02865217375833915
aI80
asS'0-10070-410'
p289
(lp290
F-0.5542553844758213
aI5
asS'0-1050-504'
p291
(lp292
F0.03634182817436697
aI15
asS'0-1050-503'
p293
(lp294
F0.14452338628764036
aI22
asS'0-4090-203'
p295
(lp296
F0.08193011267842217
aI4
asS'0-8080-408'
p297
(lp298
F0.026199603852319762
aI10
asS'01050-303'
p299
(lp300
F0.18319285750358508
aI13
asS'0-7080-503'
p301
(lp302
F0.3252736150563243
aI46
asS'0-7080-504'
p303
(lp304
F0.16508120511553945
aI93
asS'0-7080-505'
p305
(lp306
F0.20165908224019474
aI66
asS'0-7080-506'
p307
(lp308
F0.03205593753488113
aI25
asS'0-7080-507'
p309
(lp310
F0.06570794409232716
aI15
asS'0-7080-508'
p311
(lp312
F0.03817652571935669
aI4
asS'0-10070-303'
p313
(lp314
F-0.11623289786704412
aI32
asS'0-10070-304'
p315
(lp316
F-0.2764171347255325
aI69
asS'0-10070-305'
p317
(lp318
F-0.295933404387679
aI273
asS'0-10070-306'
p319
(lp320
F-0.5130735493371766
aI296
asS'0-10070-307'
p321
(lp322
F-0.16225670330695796
aI181
asS'0-10050-610'
p323
(lp324
F-0.04511514708502641
aI1
asS'0-10050-611'
p325
(lp326
F-0.12002491130412368
aI1
asS'0-3070-505'
p327
(lp328
F0.08013438357091499
aI4
asS'0-3070-504'
p329
(lp330
F0.11388763709714005
aI50
asS'0-6070-504'
p331
(lp332
F0.02813134728835409
aI136
asS'0-6070-505'
p333
(lp334
F0.20825548990315043
aI81
asS'0-6070-503'
p335
(lp336
F0.37157949211045443
aI104
asS'0-3070-503'
p337
(lp338
F0.301528206786261
aI187
asS'0-5080-603'
p339
(lp340
F0.831264282558498
aI75
asS'0-5080-605'
p341
(lp342
F0.19879800938467715
aI59
asS'0-5080-604'
p343
(lp344
F0.20190580946893216
aI101
asS'0-1060203'
p345
(lp346
F-0.005793660917099708
aI480
asS'0-1060205'
p347
(lp348
F-0.043174342304599836
aI5
asS'0-1060204'
p349
(lp350
F-0.0018454921341879808
aI78
asS'0-2070-603'
p351
(lp352
F0.4759489119558883
aI116
asS'0-2070-604'
p353
(lp354
F0.056242866048994304
aI22
asS'0-6060-703'
p355
(lp356
F-0.08194492230720507
aI1
asS'02050003'
p357
(lp358
F0.05087485654670587
aI67
asS'0-6060-706'
p359
(lp360
F0.12464291755450327
aI55
asS'0-6060-705'
p361
(lp362
F0.3638404824934314
aI109
asS'0-6060-704'
p363
(lp364
F0.8003674779564408
aI216
asS'0-6080-104'
p365
(lp366
F-0.010582850647680983
aI12
asS'0-6080-103'
p367
(lp368
F0.11568139021883467
aI6
asS'0-2050503'
p369
(lp370
F-0.02935629978431447
aI305
asS'0-3060-304'
p371
(lp372
F0.16564153633678763
aI98
asS'0-3060-305'
p373
(lp374
F-0.024537229632557594
aI6
asS'0-6070-507'
p375
(lp376
F0.02664172393348406
aI5
asS'0-3060-303'
p377
(lp378
F0.13940227804210448
aI247
asS'0-6060-603'
p379
(lp380
F0.5461119010761368
aI57
asS'0-2070-503'
p381
(lp382
F0.38468067012611296
aI137
asS'0-1080-704'
p383
(lp384
F0.7824880291590921
aI13
asS'0-1080-703'
p385
(lp386
F-0.06822543236897334
aI1
asS'0-8070-104'
p387
(lp388
F-0.10617694367315952
aI40
asS'0-8070-105'
p389
(lp390
F-0.05158849953212971
aI50
asS'0-8070-106'
p391
(lp392
F0.039559823723881025
aI36
asS'0-8070-103'
p393
(lp394
F-0.02104382282157427
aI8
asS'0-6050-403'
p395
(lp396
F-0.03850560329318352
aI66
asS'0-10060204'
p397
(lp398
F-0.5856916482460147
aI9
asS'0-10060205'
p399
(lp400
F-0.03513920577814321
aI1
asS'0-1070-104'
p401
(lp402
F0.09664175950896506
aI5
asS'0-1070-103'
p403
(lp404
F0.15889905654955694
aI174
asS'0-10060203'
p405
(lp406
F-0.05487205147560263
aI7
asS'0-2060203'
p407
(lp408
F-0.022999602004422682
aI278
asS'0-2060204'
p409
(lp410
F-0.02266277474488295
aI82
asS'0-2060205'
p411
(lp412
F0.024736540322794383
aI4
asS'0-7070-608'
p413
(lp414
F-0.049437242546258045
aI8
asS'0-10060-105'
p415
(lp416
F-0.0003837170265472839
aI491
asS'0-10060-104'
p417
(lp418
F-0.5385168412317365
aI217
asS'0-10060-107'
p419
(lp420
F0.03511473906992792
aI173
asS'0-10060-106'
p421
(lp422
F-0.06677066488557902
aI505
asS'0-7070-603'
p423
(lp424
F0.6442421224979078
aI56
asS'0-7070-606'
p425
(lp426
F0.1378886318591793
aI45
asS'0-7070-607'
p427
(lp428
F-0.1001778145229704
aI14
asS'0-7070-604'
p429
(lp430
F-0.006511760137047962
aI212
asS'0-7070-605'
p431
(lp432
F0.24801105728862982
aI130
asS'0-7060006'
p433
(lp434
F0.003737117113926644
aI21
asS'0-7060005'
p435
(lp436
F-0.03517280301725228
aI98
asS'0-7060004'
p437
(lp438
F-0.12912295654977357
aI99
asS'0-7060003'
p439
(lp440
F-0.07252041502243053
aI43
asS'0-5050204'
p441
(lp442
F-0.09072286293133772
aI307
asS'0-5050205'
p443
(lp444
F-0.00439242390862675
aI153
asS'0-5050206'
p445
(lp446
F-0.00628790253126202
aI24
asS'0-5050203'
p447
(lp448
F-0.24499962609543724
aI216
asS'0-9060003'
p449
(lp450
F-0.224833793397482
aI12
asS'0-9060005'
p451
(lp452
F-0.10136335098622508
aI158
asS'0-9060004'
p453
(lp454
F-0.12417320798222656
aI93
asS'0-9060007'
p455
(lp456
F0.05966064453308352
aI59
asS'0-9060006'
p457
(lp458
F-0.05397667877355677
aI157
asS'0-9080-304'
p459
(lp460
F0.03356937255693457
aI9
asS'0-9080-305'
p461
(lp462
F0.04284377971692806
aI66
asS'0-9080-306'
p463
(lp464
F-0.021448487561245122
aI40
asS'0-9080-307'
p465
(lp466
F-0.01764353986799009
aI16
asS'0-3080-405'
p467
(lp468
F0.11766988375107343
aI1
asS'0-3080-404'
p469
(lp470
F0.30177488073522546
aI31
asS'0-3080-403'
p471
(lp472
F0.3948858601117701
aI87
asS'0-8050-205'
p473
(lp474
F-0.13548925313092863
aI115
asS'0-8050-204'
p475
(lp476
F-0.09661878721137496
aI116
asS'0-8050-207'
p477
(lp478
F0.030775965056624333
aI2
asS'0-8050-206'
p479
(lp480
F-0.005942802534349756
aI46
asS'0-8050-203'
p481
(lp482
F-0.17682096472715803
aI53
asS'0-10090-405'
p483
(lp484
F0.011022075074235096
aI8
asS'0-10090-404'
p485
(lp486
F-0.05512297134102055
aI10
asS'0-10090-407'
p487
(lp488
F-0.046748378139511555
aI9
asS'0-10090-406'
p489
(lp490
F-0.04457969480326805
aI41
asS'0-10090-403'
p491
(lp492
F0.22339143403336242
aI8
asS'0-4050-605'
p493
(lp494
F0.2554934027804311
aI8
asS'0-4050-604'
p495
(lp496
F0.24504518761636218
aI22
asS'0-10090-408'
p497
(lp498
F-0.09008755478950592
aI3
asS'0-4050-603'
p499
(lp500
F0.8102032162189412
aI22
asS'0-3090-203'
p501
(lp502
F-0.10226004997326943
aI4
asS'0-9100-708'
p503
(lp504
F-0.06701949041036319
aI7
asS'0-9100-703'
p505
(lp506
F0.10126750904440016
aI1
asS'0-9100-705'
p507
(lp508
F0.42624541677108424
aI95
asS'0-9100-704'
p509
(lp510
F0.82448154517483
aI378
asS'0-9100-707'
p511
(lp512
F0.19800516841482704
aI40
asS'0-9100-706'
p513
(lp514
F-0.10012709188342597
aI105
asS'0-4080-505'
p515
(lp516
F0.020961183652146435
aI8
asS'0-4080-504'
p517
(lp518
F0.15640302781943982
aI55
asS'0-8060203'
p519
(lp520
F-0.022162192476284384
aI4
asS'0-8060204'
p521
(lp522
F-0.18506472130342036
aI18
asS'0-2070-103'
p523
(lp524
F0.046847515463048744
aI194
asS'00050-303'
p525
(lp526
F0.2518779126601741
aI32
asS'02050-103'
p527
(lp528
F0.10304924653287595
aI14
asS'00050-304'
p529
(lp530
F-0.05823546950315872
aI5
asS'0-7090-305'
p531
(lp532
F0.09099342735515412
aI5
asS'0-7090-304'
p533
(lp534
F0.043082980713115115
aI4
asS'0-8070103'
p535
(lp536
F-0.008741607762025037
aI2
asS'0-8070105'
p537
(lp538
F0.14509643788420437
aI1
asS'0-7090-303'
p539
(lp540
F0.08078461128887379
aI3
asS'0-9050-303'
p541
(lp542
F-0.32011740100009356
aI14
asS'0-9050-307'
p543
(lp544
F-0.410835794927898
aI9
asS'0-9050-306'
p545
(lp546
F-0.13690858566092384
aI44
asS'0-9050-305'
p547
(lp548
F-0.6174546744134228
aI88
asS'0-9050-304'
p549
(lp550
F-0.38821300861407615
aI70
asS'0-1060-204'
p551
(lp552
F0.12633011650044002
aI22
asS'0-1060-203'
p553
(lp554
F0.16455138365743943
aI252
asS'0-5070-406'
p555
(lp556
F0.06268230051118845
aI3
asS'0-5070-404'
p557
(lp558
F0.011696064334935464
aI123
asS'0-5070-405'
p559
(lp560
F0.004470132975898551
aI27
asS'0-5070-403'
p561
(lp562
F0.22585352559066685
aI128
asS'0-9060-609'
p563
(lp564
F-0.0793655215723841
aI25
asS'0-9060-608'
p565
(lp566
F-0.5548572236139484
aI61
asS'0-9060-603'
p567
(lp568
F0.2992349693657644
aI3
asS'0-9060-607'
p569
(lp570
F-0.347753152386425
aI172
asS'0-9060-606'
p571
(lp572
F-0.3279156333681801
aI211
asS'0-9060-605'
p573
(lp574
F-0.2755262341872543
aI204
asS'0-9060-604'
p575
(lp576
F0.38018769851628503
aI127
asS'0-9090-503'
p577
(lp578
F0.09658058475032921
aI3
asS'0-9090-505'
p579
(lp580
F0.025794524980436134
aI28
asS'0-9090-504'
p581
(lp582
F0.06269187258424447
aI72
asS'0-9090-507'
p583
(lp584
F0.04719857265181962
aI32
asS'0-9090-506'
p585
(lp586
F0.20302287944386366
aI12
asS'0-10100-704'
p587
(lp588
F0.8084742435016001
aI225
asS'0-10100-705'
p589
(lp590
F0.6196591293124223
aI140
asS'0-10100-706'
p591
(lp592
F0.43446425189844085
aI50
asS'0-10100-707'
p593
(lp594
F0.2572046075043446
aI33
asS'0-10100-703'
p595
(lp596
F0.05412245578931829
aI1
asS'0-10100-708'
p597
(lp598
F-0.060128508193207225
aI4
asS'0-9070-503'
p599
(lp600
F0.3487688339367188
aI42
asS'0-6060-403'
p601
(lp602
F0.2808424754286905
aI91
asS'0-1050203'
p603
(lp604
F0.03214834198297636
aI1067
asS'0-1050204'
p605
(lp606
F-0.04566971525796479
aI164
asS'0-1050205'
p607
(lp608
F0.08189247869997168
aI2
asS'0-4060-203'
p609
(lp610
F0.008943411837922036
aI250
asS'0-4060-204'
p611
(lp612
F0.032980460176946655
aI137
asS'0-4060-205'
p613
(lp614
F0.023446517631872436
aI19
asS'0-1050-404'
p615
(lp616
F0.17674821306370564
aI12
asS'0-1050-403'
p617
(lp618
F0.3640592236855694
aI41
asS'0-4090-303'
p619
(lp620
F0.04636342446228765
aI13
asS'01060-103'
p621
(lp622
F0.08662756269156872
aI103
asS'0-2050404'
p623
(lp624
F-0.016787426500360483
aI227
asS'0-9070-508'
p625
(lp626
F-0.2244953246115915
aI41
asS'0-2050403'
p627
(lp628
F-0.05344362903732793
aI640
asS'0-10060-706'
p629
(lp630
F-0.6190325732784924
aI2039
asS'0-3050303'
p631
(lp632
F-0.05623013382095225
aI423
asS'0-7080-608'
p633
(lp634
F-0.05428246646089098
aI3
asS'0-3050305'
p635
(lp636
F-0.014374140599765078
aI71
asS'0-3050304'
p637
(lp638
F-0.021489813331069425
aI334
asS'0-7080-603'
p639
(lp640
F0.4998831358587837
aI36
asS'0-8050106'
p641
(lp642
F0.17808590208811245
aI52
asS'0-7080-607'
p643
(lp644
F-0.09024221110065817
aI20
asS'0-7080-606'
p645
(lp646
F0.11080259661674613
aI55
asS'0-7080-605'
p647
(lp648
F0.16996220292873748
aI106
asS'0-7080-604'
p649
(lp650
F0.4665950778861262
aI186
asS'0-10070-208'
p651
(lp652
F-0.25454763660758656
aI66
asS'0-8050105'
p653
(lp654
F-0.25987789499951874
aI148
asS'0-10070-205'
p655
(lp656
F-0.25211352794639474
aI190
asS'0-10070-204'
p657
(lp658
F-0.3190428777293613
aI75
asS'0-10070-207'
p659
(lp660
F-0.5428015603407884
aI102
asS'0-10070-206'
p661
(lp662
F-0.24370957295434548
aI228
asS'0-3070-404'
p663
(lp664
F0.10227155607960353
aI61
asS'0-3070-405'
p665
(lp666
F0.04271748515472912
aI1
asS'0-6070-203'
p667
(lp668
F0.21559191835226427
aI82
asS'0-6070-205'
p669
(lp670
F-0.053446046784251446
aI38
asS'0-6070-204'
p671
(lp672
F0.09367695762187123
aI101
asS'0-6070-207'
p673
(lp674
F0.08586131597062854
aI4
asS'0-6070-206'
p675
(lp676
F0.008795035217997052
aI25
asS'0-5080-703'
p677
(lp678
F-0.011381198727854619
aI1
asS'0-5080-704'
p679
(lp680
F0.8222033449478199
aI509
asS'0-5080-705'
p681
(lp682
F0.3502124833885054
aI120
asS'0-5080-706'
p683
(lp684
F0.1871706162595461
aI34
asS'0-2080-403'
p685
(lp686
F0.385870647796836
aI89
asS'0-1060103'
p687
(lp688
F0.010903692821636418
aI539
asS'0-1060104'
p689
(lp690
F0.034122179258607395
aI56
asS'0-8090-608'
p691
(lp692
F0.047123836909255895
aI10
asS'0-8090-605'
p693
(lp694
F0.3675976115855048
aI63
asS'0-8090-604'
p695
(lp696
F0.3633697308686167
aI88
asS'0-8090-607'
p697
(lp698
F0.06060262927368016
aI38
asS'0-2070-703'
p699
(lp700
F-0.09168190452906332
aI1
asS'0-2070-704'
p701
(lp702
F0.7889576299377788
aI45
asS'0-2070-705'
p703
(lp704
F-0.07975193940710831
aI3
asS'0-8090-603'
p705
(lp706
F0.6151852321897903
aI14
asS'0-1060-303'
p707
(lp708
F0.15189938449979862
aI175
asS'0-6050-405'
p709
(lp710
F-0.04410059539685787
aI38
asS'0-6050-404'
p711
(lp712
F0.08324792753254757
aI96
asS'0-6050-406'
p713
(lp714
F0.0071890892237681525
aI2
asS'0-6060-606'
p715
(lp716
F-0.11523803878351067
aI21
asS'02050103'
p717
(lp718
F0.050281706036304455
aI121
asS'0-6060-604'
p719
(lp720
F0.58749660461873
aI110
asS'0-6060-605'
p721
(lp722
F0.12399562226730872
aI69
asS'0-9070004'
p723
(lp724
F-0.024580235640637355
aI11
asS'0-9070005'
p725
(lp726
F-0.04378615824206197
aI26
asS'0-9070006'
p727
(lp728
F0.010003827808640745
aI16
asS'01050-103'
p729
(lp730
F0.146832580680622
aI73
asS'0-10080-204'
p731
(lp732
F-0.041225623224087175
aI8
asS'0-10080-205'
p733
(lp734
F-0.07350754928347257
aI8
asS'0-10080-206'
p735
(lp736
F-0.11577243360710314
aI32
asS'0-10080-207'
p737
(lp738
F-0.1100647704484103
aI40
asS'0-4080-503'
p739
(lp740
F0.31360350806822185
aI93
asS'0-1070203'
p741
(lp742
F0.050058444249841405
aI22
asS'0-1080-403'
p743
(lp744
F-0.022723158357953605
aI39
asS'0-5060104'
p745
(lp746
F-0.05421526572279235
aI90
asS'0-5060105'
p747
(lp748
F-0.03700722601344708
aI61
asS'0-5060-103'
p749
(lp750
F-0.023515601506420007
aI163
asS'0-5060-104'
p751
(lp752
F-0.013040485492012855
aI180
asS'0-5060-105'
p753
(lp754
F-0.04433719810618273
aI64
asS'0-5060103'
p755
(lp756
F0.03952028119010235
aI91
asS'0-2060303'
p757
(lp758
F-0.002232453504413843
aI78
asS'0-2060304'
p759
(lp760
F-0.0009043475921352902
aI6
asS'0-10060-208'
p761
(lp762
F-0.030338244336817217
aI39
asS'0-10060-203'
p763
(lp764
F-0.09107740006261766
aI37
asS'0-10060-206'
p765
(lp766
F-0.5212199593631245
aI596
asS'0-10060-207'
p767
(lp768
F-0.7997624228620103
aI396
asS'0-10060-204'
p769
(lp770
F-0.3065971805742894
aI301
asS'0-10060-205'
p771
(lp772
F-0.10737585757686126
aI565
asS'0-8050404'
p773
(lp774
F-0.03589668359233867
aI9
asS'0-8050403'
p775
(lp776
F-0.04856742388514913
aI1
asS'0-2080-704'
p777
(lp778
F-0.023325909603785167
aI41
asS'0-2080-703'
p779
(lp780
F0.01714695117298104
aI1
asS'0-6060106'
p781
(lp782
F-0.021655124905093484
aI2
asS'0-6060105'
p783
(lp784
F-0.02459759513911433
aI58
asS'0-5050305'
p785
(lp786
F-0.0536406736104529
aI71
asS'0-5050304'
p787
(lp788
F-0.16130217486139226
aI227
asS'0-5050303'
p789
(lp790
F-0.23661538174468316
aI168
asS'0-6090-304'
p791
(lp792
F0.0026584841140912807
aI4
asS'0-6090-305'
p793
(lp794
F-0.039558247564869434
aI1
asS'0-9070-106'
p795
(lp796
F-0.01657910132017513
aI56
asS'0-9070-105'
p797
(lp798
F-0.1284262697489638
aI42
asS'0-9070-104'
p799
(lp800
F-0.1398562831352096
aI17
asS'0-9070-103'
p801
(lp802
F-0.2382383425004986
aI11
asS'0-7050206'
p803
(lp804
F-0.01655425245825557
aI23
asS'0-7050204'
p805
(lp806
F-0.3984409933151488
aI145
asS'0-7050205'
p807
(lp808
F-0.07308955498395814
aI101
asS'0-7050203'
p809
(lp810
F-0.12957907503357619
aI55
asS'0-3080-504'
p811
(lp812
F0.014490915749130185
aI43
asS'0-3080-505'
p813
(lp814
F-0.07145269491971389
aI14
asS'0-3080-503'
p815
(lp816
F0.5845109020910497
aI91
asS'0-8050-304'
p817
(lp818
F-0.14637827090106684
aI73
asS'0-8050-305'
p819
(lp820
F-0.24606448146175847
aI96
asS'0-8050-306'
p821
(lp822
F-0.13024262272898082
aI25
asS'0-8050-307'
p823
(lp824
F-0.011207673439494338
aI5
asS'0-10090-708'
p825
(lp826
F-0.17970567685066344
aI101
asS'0-8050-303'
p827
(lp828
F-0.01202639239193757
aI49
asS'0-10090-706'
p829
(lp830
F0.34905146014528377
aI321
asS'0-10090-707'
p831
(lp832
F-0.241647874939463
aI102
asS'0-10090-704'
p833
(lp834
F0.6339543137780363
aI847
asS'0-10090-705'
p835
(lp836
F0.5374146190509046
aI310
asS'0-10090-703'
p837
(lp838
F-0.13600453283847322
aI1
asS'0-4050-704'
p839
(lp840
F0.8066795981132081
aI29
asS'0-4050-705'
p841
(lp842
F0.5723910706002603
aI4
asS'0-4050-706'
p843
(lp844
F0.07203303539636938
aI4
asS'0-4050-703'
p845
(lp846
F0.06723578943361894
aI1
asS'0-5070-303'
p847
(lp848
F0.16501875248962958
aI129
asS'0-5070-305'
p849
(lp850
F-0.01858629901503784
aI28
asS'0-5070-304'
p851
(lp852
F0.0749838988612631
aI123
asS'0-5070-306'
p853
(lp854
F0.010920177710492023
aI3
asS'0-10050-104'
p855
(lp856
F-0.016876626690122937
aI1
asS'0-7050004'
p857
(lp858
F-0.4777263856421031
aI193
asS'0-10050-106'
p859
(lp860
F-0.04875999222961219
aI1
asS'0-10050-107'
p861
(lp862
F0.00014085839183033966
aI1
asS'0-7050005'
p863
(lp864
F-0.4350409791182507
aI150
asS'0-10050-108'
p865
(lp866
F0.03271249369348947
aI1
asS'0-7050007'
p867
(lp868
F0.033591050214547336
aI1
asS'00050-203'
p869
(lp870
F0.15654421041506736
aI76
asS'0-7050-606'
p871
(lp872
F-0.27069695627980445
aI3
asS'0-8070005'
p873
(lp874
F-0.07429035250609933
aI27
asS'0-8070004'
p875
(lp876
F-0.06784862298696366
aI20
asS'0-8070006'
p877
(lp878
F-0.05245887003229821
aI6
asS'0-9050-203'
p879
(lp880
F-0.1583521052472084
aI27
asS'0-9050-206'
p881
(lp882
F-0.24673167357815617
aI74
asS'0-9050-207'
p883
(lp884
F-0.5691211510531594
aI4
asS'0-9050-204'
p885
(lp886
F-0.4150381661729264
aI94
asS'0-9050-205'
p887
(lp888
F-0.3004659121631864
aI117
asS'0-1060-304'
p889
(lp890
F0.004104838273776279
aI13
asS'00050404'
p891
(lp892
F-0.007144655864971351
aI214
asS'0-5100-705'
p893
(lp894
F0.6550919285349622
aI7
asS'0-5100-704'
p895
(lp896
F0.8182372613141643
aI21
asS'0-5100-703'
p897
(lp898
F-0.0419016203897037
aI1
asS'0-9060-703'
p899
(lp900
F0.12295989038384317
aI1
asS'0-9060-706'
p901
(lp902
F0.09596974499786928
aI342
asS'0-9060-707'
p903
(lp904
F-0.5949906007027548
aI259
asS'0-9060-704'
p905
(lp906
F0.5647345996799882
aI412
asS'0-9060-705'
p907
(lp908
F0.5424780123533114
aI384
asS'0-9060-708'
p909
(lp910
F-0.5343059558015072
aI157
asS'0-9060-709'
p911
(lp912
F-0.5254308449738903
aI39
asS'0-9090-405'
p913
(lp914
F0.10904975248971162
aI4
asS'0-9090-406'
p915
(lp916
F0.06590592895822736
aI25
asS'0-10100-608'
p917
(lp918
F-0.04162895864694017
aI13
asS'0-10100-605'
p919
(lp920
F0.37998322704110443
aI12
asS'0-10100-604'
p921
(lp922
F0.6075909044569967
aI27
asS'0-10100-607'
p923
(lp924
F0.08154097917535434
aI9
asS'0-10100-606'
p925
(lp926
F-0.13242118324349741
aI1
asS'0-10100-603'
p927
(lp928
F0.6429810605687667
aI3
asS'0-7060-605'
p929
(lp930
F0.029927194085843822
aI75
asS'0-7060-604'
p931
(lp932
F0.2809072018799478
aI102
asS'0-7060-606'
p933
(lp934
F-0.17755936017252144
aI37
asS'0-10080-404'
p935
(lp936
F-0.08646625101991177
aI53
asS'0-7060-603'
p937
(lp938
F0.8180480067160114
aI50
asS'0-10080-405'
p939
(lp940
F-0.08301864320415604
aI131
asS'0-10080005'
p941
(lp942
F0.002649083927573931
aI8
asS'00060-403'
p943
(lp944
F0.47931315365518373
aI58
asS'0-2090-403'
p945
(lp946
F0.07193287248001694
aI9
asS'0-3060103'
p947
(lp948
F-0.009413824894544554
aI286
asS'0-1050303'
p949
(lp950
F-0.02501305777355464
aI1227
asS'0-1050305'
p951
(lp952
F0.08960784924068145
aI4
asS'0-1050304'
p953
(lp954
F-0.00813758885525149
aI353
asS'0-3060104'
p955
(lp956
F-0.01336991891170795
aI143
asS'0-3060105'
p957
(lp958
F0.00021009021810048344
aI21
asS'0-4060-103'
p959
(lp960
F-0.003020658479477186
aI226
asS'0-4060-105'
p961
(lp962
F-0.04922582076692105
aI19
asS'0-4060-104'
p963
(lp964
F-0.018858896890794626
aI172
asS'0-5090-603'
p965
(lp966
F0.421386276032082
aI7
asS'0-2050303'
p967
(lp968
F-0.06014674223611073
aI687
asS'0-6080-703'
p969
(lp970
F0.1366357156820737
aI1
asS'0-6080-705'
p971
(lp972
F0.17207463129416795
aI221
asS'0-6080-704'
p973
(lp974
F0.8001783979308424
aI500
asS'0-2050304'
p975
(lp976
F-0.03588876958036896
aI369
asS'0-2050305'
p977
(lp978
F-0.026778272266102653
aI42
asS'0-3050003'
p979
(lp980
F0.013342348766743083
aI385
asS'0-3050004'
p981
(lp982
F0.010780014149059585
aI157
asS'0-3050005'
p983
(lp984
F-0.014151668529760724
aI17
asS'0-7080-703'
p985
(lp986
F-0.09442869280521826
aI1
asS'0-7080-706'
p987
(lp988
F0.26644591474348767
aI110
asS'0-7080-707'
p989
(lp990
F0.06818190049593177
aI38
asS'0-7080-704'
p991
(lp992
F0.5027310467047171
aI679
asS'0-7080-705'
p993
(lp994
F0.539621803843345
aI236
asS'0-10070-103'
p995
(lp996
F-0.09084086959024204
aI2
asS'0-10070-106'
p997
(lp998
F-0.05758081132925566
aI123
asS'0-10070-107'
p999
(lp1000
F-0.1409325043192345
aI64
asS'0-10070-104'
p1001
(lp1002
F-0.16709936737364184
aI42
asS'0-10070-105'
p1003
(lp1004
F-0.06295121592423476
aI118
asS'0-10070-108'
p1005
(lp1006
F0.0916960761048929
aI41
asS'0-1080-503'
p1007
(lp1008
F0.4075222703918483
aI31
asS'0-5080-403'
p1009
(lp1010
F0.09605009375656429
aI75
asS'0-5080-405'
p1011
(lp1012
F0.10881225063864139
aI27
asS'0-5080-404'
p1013
(lp1014
F0.01724648864611268
aI73
asS'0-1060003'
p1015
(lp1016
F0.08730314382379105
aI441
asS'0-1060004'
p1017
(lp1018
F0.08277242736921192
aI48
asS'0-2070-403'
p1019
(lp1020
F0.19521748220887497
aI152
asS'0-8090-705'
p1021
(lp1022
F0.4927519953670894
aI250
asS'0-8090-706'
p1023
(lp1024
F0.24848929196173944
aI127
asS'0-8090-707'
p1025
(lp1026
F0.28327389929283775
aI43
asS'0-8090-703'
p1027
(lp1028
F-0.14708261361765987
aI1
asS'0-8090-708'
p1029
(lp1030
F-0.10572354503471332
aI19
asS'0-6050-504'
p1031
(lp1032
F-0.0462187880801698
aI53
asS'0-6050-505'
p1033
(lp1034
F0.03283832453282401
aI47
asS'02050203'
p1035
(lp1036
F0.04532288904663862
aI328
asS'0-6050-503'
p1037
(lp1038
F0.12117887084665141
aI30
asS'0-10060-303'
p1039
(lp1040
F-0.11281279407745981
aI7
asS'0-10060-307'
p1041
(lp1042
F-0.8096088330826958
aI385
asS'0-10060-306'
p1043
(lp1044
F-0.22999235844761362
aI583
asS'0-10060-305'
p1045
(lp1046
F-0.8461712996264857
aI543
asS'0-10060-304'
p1047
(lp1048
F-0.27310469620296157
aI257
asS'0-10060-309'
p1049
(lp1050
F-0.8041395105321008
aI61
asS'0-10060-308'
p1051
(lp1052
F-0.5292910193450985
aI278
asS'0-3060-104'
p1053
(lp1054
F0.024079358751369552
aI128
asS'0-3060-105'
p1055
(lp1056
F-0.0392010396631694
aI10
asS'0-3060-103'
p1057
(lp1058
F0.11424521315617069
aI340
asS'01050-203'
p1059
(lp1060
F0.06255558674951375
aI34
asS'0-10080-308'
p1061
(lp1062
F-0.23169559504761195
aI56
asS'0-4080-404'
p1063
(lp1064
F0.028316419842269222
aI47
asS'0-8060-304'
p1065
(lp1066
F-0.13867948591007362
aI162
asS'0-10080-307'
p1067
(lp1068
F-0.14474236144535113
aI18
asS'0-10080-306'
p1069
(lp1070
F-0.07014466312343211
aI81
asS'0-8060-303'
p1071
(lp1072
F-0.09828665844277448
aI79
asS'0-4080-403'
p1073
(lp1074
F0.10299281897364154
aI88
asS'0-9080-106'
p1075
(lp1076
F0.011367983519569002
aI5
asS'0-9080-104'
p1077
(lp1078
F-0.10440198497536167
aI4
asS'0-9080-105'
p1079
(lp1080
F-0.019789325040828004
aI4
asS'0-5060-203'
p1081
(lp1082
F-0.02160394707471526
aI159
asS'0-5060004'
p1083
(lp1084
F-0.023233182135062855
aI145
asS'0-1070-703'
p1085
(lp1086
F-0.05980931299275091
aI1
asS'0-5060006'
p1087
(lp1088
F-0.035268903749145555
aI2
asS'0-1070-704'
p1089
(lp1090
F0.7925427305139653
aI6
asS'0-5060003'
p1091
(lp1092
F0.04726727334946852
aI135
asS'0-5060-204'
p1093
(lp1094
F-0.015685558526192404
aI158
asS'01060103'
p1095
(lp1096
F0.07347585246595781
aI313
asS'0-10110-706'
p1097
(lp1098
F0.43880146474777215
aI21
asS'0-10110-705'
p1099
(lp1100
F0.562826098928707
aI11
asS'0-10110-704'
p1101
(lp1102
F0.8196056722274642
aI103
asS'0-10110-703'
p1103
(lp1104
F-0.03910019733845706
aI1
asS'0-2080-604'
p1105
(lp1106
F0.4564491817279436
aI5
asS'0-2080-603'
p1107
(lp1108
F0.835602611079057
aI49
asS'0-5050403'
p1109
(lp1110
F-0.04951230666122106
aI89
asS'0-5050404'
p1111
(lp1112
F-0.1619095817353427
aI71
asS'0-6090-403'
p1113
(lp1114
F0.31050372954544025
aI2
asS'0-6090-405'
p1115
(lp1116
F0.05225741319132266
aI12
asS'0-6090-404'
p1117
(lp1118
F0.04797347837938602
aI6
asS'0-7050305'
p1119
(lp1120
F-0.14005780858087358
aI19
asS'0-7050304'
p1121
(lp1122
F-0.06380361779498459
aI105
asS'0-7050303'
p1123
(lp1124
F-0.09202672550030039
aI24
asS'0-10080-605'
p1125
(lp1126
F0.31126016713200994
aI171
asS'0-10090-709'
p1127
(lp1128
F-0.26729009390064123
aI8
asS'0-10090-607'
p1129
(lp1130
F-0.08942428668067173
aI66
asS'0-10090-606'
p1131
(lp1132
F0.2509479409605634
aI56
asS'0-10090-605'
p1133
(lp1134
F-0.0803917855633367
aI60
asS'0-10090-604'
p1135
(lp1136
F0.02185770433570705
aI74
asS'0-10090-603'
p1137
(lp1138
F0.631536555920461
aI9
asS'0-4050-404'
p1139
(lp1140
F0.17735054665992614
aI52
asS'0-4050-403'
p1141
(lp1142
F0.08206697343823453
aI65
asS'0-10090-608'
p1143
(lp1144
F-0.22787128648894495
aI45
asS'0-1060-403'
p1145
(lp1146
F0.09377727053055307
aI146
asS'00050503'
p1147
(lp1148
F-0.01466948845925237
aI1389
asS'0-1060-404'
p1149
(lp1150
F0.37423295050696437
aI10
asS'0-5090-405'
p1151
(lp1152
F-0.04745419013080142
aI4
asS'0-5070-203'
p1153
(lp1154
F0.09704002693638279
aI123
asS'0-5070-204'
p1155
(lp1156
F-0.001130026797908204
aI106
asS'0-5070-205'
p1157
(lp1158
F-0.012348623917478832
aI23
asS'0-5070-206'
p1159
(lp1160
F-0.040701121489819095
aI2
asS'0-9070-710'
p1161
(lp1162
F-0.024048882016107248
aI1
asS'0-2070003'
p1163
(lp1164
F0.09585501923381531
aI101
asS'0-2070004'
p1165
(lp1166
F0.0442913600751592
aI23
asS'0-4070-605'
p1167
(lp1168
F0.3628362296001763
aI43
asS'0-4070-604'
p1169
(lp1170
F0.4270069277018995
aI96
asS'0-4070-603'
p1171
(lp1172
F0.42915301444462384
aI179
asS'0-9060-710'
p1173
(lp1174
F-0.034283145669833946
aI2
asS'00050-103'
p1175
(lp1176
F0.12765216720855413
aI193
asS'0-2060-105'
p1177
(lp1178
F0.044635592005043134
aI8
asS'01060-303'
p1179
(lp1180
F0.2735341983592363
aI15
asS'0-3050-105'
p1181
(lp1182
F0.0059247127085433685
aI3
asS'0-9090-703'
p1183
(lp1184
F-0.04542561714485291
aI1
asS'0-9090-707'
p1185
(lp1186
F0.22136519913918853
aI55
asS'0-9090-706'
p1187
(lp1188
F0.40184899752614367
aI127
asS'0-9090-705'
p1189
(lp1190
F0.5296866204042294
aI229
asS'0-9090-704'
p1191
(lp1192
F0.5633486529930757
aI582
asS'0-9090-708'
p1193
(lp1194
F0.11407069539134647
aI19
asS'0-5090-504'
p1195
(lp1196
F0.2611474854743249
aI20
asS'0-6070104'
p1197
(lp1198
F0.08952261057445099
aI3
asS'0-6070105'
p1199
(lp1200
F-0.02212330184281594
aI4
asS'0-6070103'
p1201
(lp1202
F-0.0005461198157621376
aI20
asS'0-5090-503'
p1203
(lp1204
F0.07529119216860991
aI12
asS'0-7060-704'
p1205
(lp1206
F0.15804874006447298
aI216
asS'0-7060-705'
p1207
(lp1208
F0.23140797355253687
aI148
asS'0-7060-706'
p1209
(lp1210
F0.1264873141651711
aI76
asS'0-7060-707'
p1211
(lp1212
F-0.21631921376654006
aI16
asS'0-7060-703'
p1213
(lp1214
F-0.04597812097476019
aI1
asS'0-9060105'
p1215
(lp1216
F-0.06629154900680102
aI114
asS'00060-503'
p1217
(lp1218
F0.48076355910861934
aI31
asS'0-2090-503'
p1219
(lp1220
F0.050376531253566045
aI6
asS'0-3060003'
p1221
(lp1222
F0.01234650548084653
aI313
asS'0-3060005'
p1223
(lp1224
F0.003488023656106974
aI21
asS'0-3060004'
p1225
(lp1226
F0.06432852462496115
aI141
asS'0-3050203'
p1227
(lp1228
F-0.09545229980690895
aI494
asS'02050303'
p1229
(lp1230
F-0.005044022813732112
aI1059
asS'0-3050-603'
p1231
(lp1232
F0.5649737189820416
aI25
asS'0-3050-604'
p1233
(lp1234
F0.35964191885792873
aI10
asS'0-3050-605'
p1235
(lp1236
F-0.00947814634044232
aI9
asS'0-3050103'
p1237
(lp1238
F-0.003972060066889589
aI494
asS'0-3050105'
p1239
(lp1240
F-0.038556304949205526
aI53
asS'0-3050104'
p1241
(lp1242
F-0.09000588835057677
aI345
asS'0-4060004'
p1243
(lp1244
F-0.002106275516441658
aI166
asS'0-4060005'
p1245
(lp1246
F0.0002464563674188687
aI46
asS'0-4060006'
p1247
(lp1248
F-0.034589966974262434
aI3
asS'0-9050006'
p1249
(lp1250
F0.20213344226951263
aI60
asS'0-9050007'
p1251
(lp1252
F0.09955519363316578
aI3
asS'0-9050004'
p1253
(lp1254
F-0.8017069592788912
aI104
asS'0-9050005'
p1255
(lp1256
F-0.0945101734634517
aI165
asS'0-1080-203'
p1257
(lp1258
F0.08161121127981151
aI57
asS'0-5080-503'
p1259
(lp1260
F0.5377564139843581
aI88
asS'0-5080-504'
p1261
(lp1262
F0.3179640657228474
aI82
asS'0-5080-505'
p1263
(lp1264
F0.030252026496609463
aI17
asS'0-8090-406'
p1265
(lp1266
F-0.06776365297753714
aI3
asS'0-8090-405'
p1267
(lp1268
F0.046345345649578804
aI17
asS'0-8090-404'
p1269
(lp1270
F-0.006788259819992627
aI11
asS'0-2070-504'
p1271
(lp1272
F0.3642940681636963
aI34
asS'01050503'
p1273
(lp1274
F-0.01918054059677004
aI3492
asS'0-3060-603'
p1275
(lp1276
F0.8024851922528663
aI94
asS'0-3060-605'
p1277
(lp1278
F0.07949418148189612
aI19
asS'0-3060-604'
p1279
(lp1280
F0.1436533381222433
aI52
asS'0-8080-403'
p1281
(lp1282
F0.006325493985103787
aI18
asS'0-8080-404'
p1283
(lp1284
F0.01896809242603929
aI52
asS'0-8080-405'
p1285
(lp1286
F-0.04915436342992699
aI82
asS'0-8080-406'
p1287
(lp1288
F0.02959070205877934
aI51
asS'0-4050106'
p1289
(lp1290
F-0.07034252816904896
aI6
asS'0-4050104'
p1291
(lp1292
F-0.022197612599238917
aI357
asS'0-4050105'
p1293
(lp1294
F-0.011045427103420428
aI90
asS'0-4050103'
p1295
(lp1296
F0.010924940705846646
aI315
asS'0-8060-204'
p1297
(lp1298
F-0.11254709057165235
aI156
asS'0-8060-205'
p1299
(lp1300
F-0.0663617653174766
aI174
asS'0-8060-206'
p1301
(lp1302
F-0.09716442982465869
aI80
asS'0-8060-207'
p1303
(lp1304
F-0.12843021288650364
aI4
asS'0-8060-203'
p1305
(lp1306
F-0.10900021373843727
aI77
asS'0-7060-306'
p1307
(lp1308
F-0.08048158873931151
aI36
asS'0-7060-307'
p1309
(lp1310
F-0.17078251740441552
aI5
asS'0-5060-303'
p1311
(lp1312
F0.09825074807808212
aI163
asS'0-5060-306'
p1313
(lp1314
F-0.021600797828309537
aI4
asS'0-5060-304'
p1315
(lp1316
F0.07576541963400962
aI138
asS'0-5060-305'
p1317
(lp1318
F0.03100787340710813
aI24
asS'0-2050-503'
p1319
(lp1320
F0.2825259105147813
aI37
asS'0-2050-504'
p1321
(lp1322
F0.5245417110230328
aI16
asS'0-4050-504'
p1323
(lp1324
F0.14509143387518322
aI39
asS'0-4050-505'
p1325
(lp1326
F0.21539130604195517
aI2
asS'0-4050-503'
p1327
(lp1328
F0.09665283618664848
aI20
asS'0-7070-105'
p1329
(lp1330
F-0.092601745417768
aI49
asS'0-7070-104'
p1331
(lp1332
F-0.10363781328641586
aI36
asS'0-7070-106'
p1333
(lp1334
F0.0040920539265311
aI14
asS'0-7070-103'
p1335
(lp1336
F0.02898879376631972
aI18
asS'0-2060-703'
p1337
(lp1338
F0.04514524495808009
aI1
asS'00070-403'
p1339
(lp1340
F0.25953926285066886
aI45
asS'0-5070-605'
p1341
(lp1342
F0.13642706128168175
aI68
asS'0-9080-708'
p1343
(lp1344
F-0.2599932441090485
aI54
asS'0-6090-503'
p1345
(lp1346
F0.531527493820611
aI14
asS'0-6090-504'
p1347
(lp1348
F0.0901276774775395
aI12
asS'0-6090-505'
p1349
(lp1350
F0.09489835374007627
aI6
asS'0-6090-506'
p1351
(lp1352
F0.0474055485696251
aI4
asS'0-3080004'
p1353
(lp1354
F-0.00874660108627505
aI2
asS'0-3080003'
p1355
(lp1356
F0.0091299315312081
aI3
asS'0-9080-704'
p1357
(lp1358
F0.8125919343803325
aI729
asS'0-9070-703'
p1359
(lp1360
F-0.12789482195781124
aI1
asS'0-9070-705'
p1361
(lp1362
F-0.33054850820048276
aI384
asS'0-9070-704'
p1363
(lp1364
F0.3066327383887675
aI657
asS'0-9070-707'
p1365
(lp1366
F0.07618291991745574
aI268
asS'0-9070-706'
p1367
(lp1368
F0.20723055722072117
aI252
asS'0-9070-709'
p1369
(lp1370
F-0.22515378035287045
aI10
asS'0-9070-708'
p1371
(lp1372
F-0.4092139188980084
aI138
asS'0-7050006'
p1373
(lp1374
F-0.1838969414501917
aI69
asS'00070-404'
p1375
(lp1376
F0.022719738552845023
aI3
asS'0-7050003'
p1377
(lp1378
F-0.09546588446139288
aI89
asS'0-7050-506'
p1379
(lp1380
F-0.06228897408997526
aI6
asS'0-7050-505'
p1381
(lp1382
F0.11045108496226365
aI21
asS'0-7050-504'
p1383
(lp1384
F-0.16556569461402681
aI51
asS'0-7050-503'
p1385
(lp1386
F0.13968045568049559
aI10
asS'0-8080004'
p1387
(lp1388
F-0.10456107024541364
aI1
asS'0-8050-106'
p1389
(lp1390
F-0.19723728044961322
aI68
asS'0-8050-107'
p1391
(lp1392
F0.49780258335266414
aI3
asS'0-8050-104'
p1393
(lp1394
F-0.1790398247463713
aI146
asS'0-8050-105'
p1395
(lp1396
F-0.10382847884594995
aI134
asS'0-8050-103'
p1397
(lp1398
F-0.26673091117392816
aI52
asS'0-1060-503'
p1399
(lp1400
F0.04300105660783291
aI67
asS'0-1060-504'
p1401
(lp1402
F0.2420969590357092
aI9
asS'0-5070-103'
p1403
(lp1404
F0.004639190933374615
aI69
asS'0-5070-106'
p1405
(lp1406
F-0.016942435394378758
aI1
asS'0-5070-105'
p1407
(lp1408
F-0.015194400498422524
aI22
asS'0-5070-104'
p1409
(lp1410
F0.015925235599911478
aI80
asS'0-6060-105'
p1411
(lp1412
F-0.03142296165631147
aI91
asS'0-6060-104'
p1413
(lp1414
F-0.01830730542962741
aI173
asS'0-6060-106'
p1415
(lp1416
F-0.013769593020450126
aI19
asS'0-6060-103'
p1417
(lp1418
F0.03165988498761138
aI128
asS'0-4070-706'
p1419
(lp1420
F0.03396312636806416
aI14
asS'0-4070-704'
p1421
(lp1422
F0.833660373344759
aI366
asS'0-4070-705'
p1423
(lp1424
F0.36637058716015575
aI50
asS'0-4070-703'
p1425
(lp1426
F0.08146148267405168
aI1
asS'0-5090-404'
p1427
(lp1428
F0.19039596441652323
aI17
asS'0-6070006'
p1429
(lp1430
F0.09929468224451579
aI7
asS'0-6070005'
p1431
(lp1432
F-0.011374313959168254
aI23
asS'0-6070004'
p1433
(lp1434
F-0.06585608362893974
aI25
asS'0-6070003'
p1435
(lp1436
F-0.04686695325961038
aI14
asS'0-5090-403'
p1437
(lp1438
F0.2670903699323207
aI18
asS'00060104'
p1439
(lp1440
F0.0468117731264804
aI7
asS'00060103'
p1441
(lp1442
F0.007509059520878914
aI532
asS'0-4090-603'
p1443
(lp1444
F0.8192476889027525
aI7
asS'0-4090-605'
p1445
(lp1446
F0.13364732634868298
aI10
asS'0-4090-604'
p1447
(lp1448
F0.17511516572578256
aI34
asS'0-2060403'
p1449
(lp1450
F0.005862006197688851
aI12
asS'01060-203'
p1451
(lp1452
F0.17879519561763696
aI49
asS'0-9090-608'
p1453
(lp1454
F-0.12087278429916185
aI10
asS'0-9090-603'
p1455
(lp1456
F0.6299780971843533
aI9
asS'0-9090-606'
p1457
(lp1458
F0.18383119228442363
aI55
asS'0-9090-607'
p1459
(lp1460
F0.16753217783971452
aI20
asS'0-9090-604'
p1461
(lp1462
F-0.03153866284790145
aI90
asS'0-9090-605'
p1463
(lp1464
F0.41864457008952427
aI97
asS'0-5070005'
p1465
(lp1466
F0.011204534354747333
aI16
asS'0-5070004'
p1467
(lp1468
F0.0029602028205182075
aI27
asS'0-9110-703'
p1469
(lp1470
F-0.023814524404440346
aI1
asS'0-9110-706'
p1471
(lp1472
F-0.005612621922477107
aI1
asS'0-9110-704'
p1473
(lp1474
F0.09215250186930768
aI133
asS'0-9110-705'
p1475
(lp1476
F0.4066280767749711
aI7
asS'0-5070003'
p1477
(lp1478
F0.0674842216385952
aI38
asS'00050403'
p1479
(lp1480
F-0.02836312262435707
aI1882
asS'00060-203'
p1481
(lp1482
F0.182980708197987
aI148
asS'00060-204'
p1483
(lp1484
F0.16059548687764055
aI9
asS'0-2090-604'
p1485
(lp1486
F0.014663715598024912
aI6
asS'0-2090-603'
p1487
(lp1488
F0.8020499165831563
aI3
asS'0-10060-410'
p1489
(lp1490
F-0.8127224222568971
aI80
asS'0-3060303'
p1491
(lp1492
F0.0012937060230336515
aI34
asS'0-3060304'
p1493
(lp1494
F-0.03671901622665117
aI13
asS'01050403'
p1495
(lp1496
F-0.011228569197728988
aI3486
asS'01050404'
p1497
(lp1498
F-0.08614695619324514
aI15
asS'02050403'
p1499
(lp1500
F-0.012285828576780086
aI3336
asS'0-3050-503'
p1501
(lp1502
F0.20202236437963117
aI44
asS'0-3050-505'
p1503
(lp1504
F0.06076333762340584
aI2
asS'0-3050-504'
p1505
(lp1506
F0.14423294120693914
aI29
asS'0-5050-305'
p1507
(lp1508
F-0.06498666199496758
aI20
asS'0-5050-304'
p1509
(lp1510
F0.06430949301677065
aI92
asS'0-5050-303'
p1511
(lp1512
F-0.003401083730528942
aI87
asS'0-9050103'
p1513
(lp1514
F-0.27958429722339606
aI30
asS'0-4060104'
p1515
(lp1516
F0.009294691797564033
aI138
asS'0-9050107'
p1517
(lp1518
F0.08420103029788623
aI2
asS'0-9050106'
p1519
(lp1520
F-0.7684456348794851
aI45
asS'0-4060103'
p1521
(lp1522
F0.009917661268154777
aI153
asS'0-9050104'
p1523
(lp1524
F-0.8347726304596405
aI101
asS'0-2060-303'
p1525
(lp1526
F0.07845102700546935
aI233
asS'0-2060-306'
p1527
(lp1528
F0.09746593858095096
aI1
asS'0-2060-305'
p1529
(lp1530
F0.02404701600628581
aI4
asS'0-2060-304'
p1531
(lp1532
F0.08474412188002622
aI51
asS'0-8090-506'
p1533
(lp1534
F-0.06514187672345026
aI28
asS'0-8090-507'
p1535
(lp1536
F-0.08337860746302386
aI8
asS'0-8090-504'
p1537
(lp1538
F0.10729238710407993
aI30
asS'0-8090-505'
p1539
(lp1540
F0.19892841345722895
aI47
asS'0-8090-503'
p1541
(lp1542
F0.12390528434483652
aI4
asS'0-8090-508'
p1543
(lp1544
F0.03374930155445597
aI7
asS'0-4050204'
p1545
(lp1546
F-0.031295959112704386
aI349
asS'0-9050-508'
p1547
(lp1548
F-0.5429586512509925
aI8
asS'0-9050-505'
p1549
(lp1550
F-0.25025113349863276
aI37
asS'0-9050-504'
p1551
(lp1552
F-0.3044293525683832
aI7
asS'0-9050-507'
p1553
(lp1554
F-0.35261748284450106
aI11
asS'0-9050-506'
p1555
(lp1556
F-0.09676307790542543
aI13
asS'0-8080-708'
p1557
(lp1558
F-0.14074038677489736
aI29
asS'0-8080-703'
p1559
(lp1560
F-0.05726439046360143
aI1
asS'0-8080-707'
p1561
(lp1562
F0.1402127885146495
aI57
asS'0-8080-706'
p1563
(lp1564
F0.4086517267664821
aI170
asS'0-8080-705'
p1565
(lp1566
F0.214677322732656
aI298
asS'0-8080-704'
p1567
(lp1568
F0.6336029382127366
aI745
asS'0-4050005'
p1569
(lp1570
F-0.02328898141250622
aI57
asS'0-4050004'
p1571
(lp1572
F0.013261773250779024
aI239
asS'0-4050003'
p1573
(lp1574
F0.02713662343083124
aI288
asS'0-8060-107'
p1575
(lp1576
F0.01316441547785166
aI1
asS'0-8060-106'
p1577
(lp1578
F-0.09484066327119595
aI88
asS'0-8060-105'
p1579
(lp1580
F-0.08999811655995302
aI144
asS'0-8060-104'
p1581
(lp1582
F-0.18273970810856757
aI150
asS'0-8060-103'
p1583
(lp1584
F-0.10294207260600344
aI47
asS'0-6090-603'
p1585
(lp1586
F0.6880983554811875
aI8
asS'0-6090-606'
p1587
(lp1588
F0.04190753095846417
aI17
asS'0-6090-605'
p1589
(lp1590
F-0.01850049848688627
aI25
asS'0-6090-604'
p1591
(lp1592
F0.6018230331390481
aI88
asS'0-7050503'
p1593
(lp1594
F-0.05289751347188754
aI9
asS'0-7080-104'
p1595
(lp1596
F0.020087246560450956
aI26
asS'0-2050-603'
p1597
(lp1598
F0.4365040680616924
aI19
asS'0-2050-604'
p1599
(lp1600
F0.04713523813600157
aI7
asS'0-4050-203'
p1601
(lp1602
F-0.04159881792717128
aI157
asS'0-4050-205'
p1603
(lp1604
F-0.05402276994761284
aI9
asS'0-4050-204'
p1605
(lp1606
F0.05068473083010709
aI110
asS'0-9080005'
p1607
(lp1608
F0.0004234383940363558
aI11
asS'0-9070-608'
p1609
(lp1610
F-0.22726457986379595
aI59
asS'0-9070-609'
p1611
(lp1612
F-0.35164282672185443
aI40
asS'0-3070003'
p1613
(lp1614
F0.02653396906218948
aI68
asS'0-9070-603'
p1615
(lp1616
F0.6148096738139357
aI13
asS'0-9070-604'
p1617
(lp1618
F-0.16161897988482138
aI187
asS'0-9070-605'
p1619
(lp1620
F0.19360175145521052
aI199
asS'0-9070-606'
p1621
(lp1622
F-0.25044177972242554
aI211
asS'0-9070-607'
p1623
(lp1624
F-0.12485335975909305
aI146
asS'0-7050105'
p1625
(lp1626
F-0.3767077790473582
aI162
asS'0-8070-206'
p1627
(lp1628
F-0.06797860491847532
aI37
asS'0-8070-205'
p1629
(lp1630
F-0.09289900146313965
aI82
asS'0-7050106'
p1631
(lp1632
F-0.071237882249165
aI54
asS'0-8070-203'
p1633
(lp1634
F-0.05364797874875637
aI26
asS'0-7050103'
p1635
(lp1636
F-0.09915183810402523
aI115
asS'0-7050-406'
p1637
(lp1638
F0.009602234624971007
aI6
asS'0-7050-404'
p1639
(lp1640
F0.05461361644105329
aI74
asS'0-7050-405'
p1641
(lp1642
F-0.21640254381312982
aI73
asS'0-7050-403'
p1643
(lp1644
F-0.1242099183694026
aI30
asS'0-8050-605'
p1645
(lp1646
F-0.2642001202126122
aI32
asS'0-8050-604'
p1647
(lp1648
F-0.2690486121463868
aI20
asS'0-8050-607'
p1649
(lp1650
F-0.3203447628617642
aI10
asS'0-8050-606'
p1651
(lp1652
F-0.16840592775544977
aI9
asS'0-6060006'
p1653
(lp1654
F-0.02066975008459197
aI11
asS'0-6060004'
p1655
(lp1656
F-0.0028546020323870144
aI132
asS'0-1050-704'
p1657
(lp1658
F0.5160922285163299
aI3
asS'0-1050-703'
p1659
(lp1660
F0.13831323013805294
aI1
asS'0-6060003'
p1661
(lp1662
F-0.05136014033972646
aI89
asS'0-1060-604'
p1663
(lp1664
F0.2583281581764767
aI8
asS'0-6080-406'
p1665
(lp1666
F-0.012979879356423342
aI4
asS'0-2070203'
p1667
(lp1668
F0.020151191175774033
aI19
asS'0-2070204'
p1669
(lp1670
F-0.014969671117105607
aI3
asS'0-5090-706'
p1671
(lp1672
F-0.002424348979830279
aI3
asS'0-5090-705'
p1673
(lp1674
F0.03108653635012963
aI96
asS'0-5090-704'
p1675
(lp1676
F0.5441771062898831
aI192
asS'0-5090-703'
p1677
(lp1678
F-0.019838879034272477
aI1
asS'00060004'
p1679
(lp1680
F0.07021865794207238
aI9
asS'00060003'
p1681
(lp1682
F0.0568870496864995
aI413
asS'0-10060105'
p1683
(lp1684
F-0.7931989749200673
aI159
asS'0-10060104'
p1685
(lp1686
F-0.06237469725997677
aI1
asS'0-10060103'
p1687
(lp1688
F0.039111268593343296
aI16
asS'0-7070006'
p1689
(lp1690
F-0.010009398974538466
aI2
asS'01060-503'
p1691
(lp1692
F-0.04117034230036981
aI5
asS'0-7070004'
p1693
(lp1694
F-0.04322971309120649
aI24
asS'0-7070005'
p1695
(lp1696
F-0.004234660057171319
aI14
asS'0-7070003'
p1697
(lp1698
F-0.008377542493508668
aI8
asS'0-9060-505'
p1699
(lp1700
F-0.27176330406795624
aI202
asS'0-10060-408'
p1701
(lp1702
F-0.8041600504165086
aI555
asS'0-10060-409'
p1703
(lp1704
F-0.8057856272732168
aI168
asS'0-10060-404'
p1705
(lp1706
F-0.26366280304484513
aI272
asS'0-10060-405'
p1707
(lp1708
F-0.27059584141732207
aI435
asS'0-10060-406'
p1709
(lp1710
F-0.3152151304232766
aI593
asS'0-10060-407'
p1711
(lp1712
F-0.8016920513966715
aI582
asS'0-10060-403'
p1713
(lp1714
F-0.5785007136005695
aI20
asS'0-7060303'
p1715
(lp1716
F0.013020846673080039
aI1
asS'0-5070105'
p1717
(lp1718
F-0.13940776819128373
aI1
asS'0-5070103'
p1719
(lp1720
F0.031121740666188176
aI10
asS'00060-303'
p1721
(lp1722
F0.1932136528365081
aI100
asS'00060-304'
p1723
(lp1724
F-0.10715471876600885
aI1
asS'0-9080-605'
p1725
(lp1726
F0.3881671266353106
aI159
asS'0-9080-604'
p1727
(lp1728
F0.44030209726951647
aI169
asS'0-9080-607'
p1729
(lp1730
F0.09514864694362643
aI88
asS'0-9080-606'
p1731
(lp1732
F-0.17352874791463396
aI154
asS'0-2090-703'
p1733
(lp1734
F-0.02021142980905019
aI1
asS'0-9080-603'
p1735
(lp1736
F0.5308779800614062
aI23
asS'0-3060203'
p1737
(lp1738
F0.004614681476519759
aI143
asS'0-3060205'
p1739
(lp1740
F-0.07539488939157059
aI5
asS'0-9080-608'
p1741
(lp1742
F0.05207812956514368
aI40
asS'0-1050404'
p1743
(lp1744
F-0.01554808585426072
aI229
asS'0-1050403'
p1745
(lp1746
F-0.0034957348114682055
aI1046
asS'0-3050-403'
p1747
(lp1748
F0.19357114758923005
aI60
asS'0-3050-404'
p1749
(lp1750
F0.12173649920514815
aI43
asS'0-3090-705'
p1751
(lp1752
F-0.041516396829852815
aI3
asS'0-3090-704'
p1753
(lp1754
F-0.1080716671430014
aI27
asS'0-5050-204'
p1755
(lp1756
F0.03680923524389373
aI114
asS'0-5050-205'
p1757
(lp1758
F-0.13813378734150833
aI52
asS'0-5050-203'
p1759
(lp1760
F0.004251271448735467
aI124
asS'0-3090-703'
p1761
(lp1762
F-0.14077635459707225
aI1
asS'0-4060105'
p1763
(lp1764
F-0.01863460765543004
aI37
asS'0-9100-603'
p1765
(lp1766
F0.5496508976152724
aI2
asS'0-9100-604'
p1767
(lp1768
F0.5638998801985204
aI9
asS'0-9100-605'
p1769
(lp1770
F0.37039265907518926
aI11
asS'0-9100-606'
p1771
(lp1772
F0.1927635702009827
aI17
asS'0-9100-607'
p1773
(lp1774
F-0.08477944078864257
aI7
asS'0-9100-608'
p1775
(lp1776
F0.043099557905867
aI5
asS'0-9050203'
p1777
(lp1778
F-0.0339554380076004
aI2
asS'0-9050204'
p1779
(lp1780
F-0.7976573598978386
aI69
asS'0-9050105'
p1781
(lp1782
F-0.8095152121574112
aI103
asS'0-9050206'
p1783
(lp1784
F-0.818789812017659
aI9
asS'0-2060-203'
p1785
(lp1786
F0.05302283169707261
aI325
asS'0-2060-204'
p1787
(lp1788
F0.08437066152762046
aI79
asS'0-2060-205'
p1789
(lp1790
F-0.002256992823628359
aI15
asS'0-8060304'
p1791
(lp1792
F-0.09590468226028209
aI5
asS'0-8090-205'
p1793
(lp1794
F0.10708095738782988
aI1
asS'0-8090-204'
p1795
(lp1796
F0.06184147137686108
aI3
asS'0-2050-703'
p1797
(lp1798
F0.07849153285513802
aI1
asS'0-2050-704'
p1799
(lp1800
F0.34881804795608495
aI10
asS'0-9050-404'
p1801
(lp1802
F-0.4423556333700547
aI44
asS'0-9050-405'
p1803
(lp1804
F-0.20938650848302634
aI43
asS'0-6050403'
p1805
(lp1806
F-0.24975886894333926
aI27
asS'0-9050-407'
p1807
(lp1808
F-0.8092830575873933
aI9
asS'0-6050404'
p1809
(lp1810
F-0.08714621594852451
aI25
asS'0-10070-710'
p1811
(lp1812
F-0.5903680706537995
aI83
asS'00050204'
p1813
(lp1814
F-0.003071149415468745
aI23
asS'00050203'
p1815
(lp1816
F0.0052596918579355815
aI1006
asS'0-8080-603'
p1817
(lp1818
F0.3429450801989339
aI15
asS'0-8080-606'
p1819
(lp1820
F-0.13344968429007636
aI52
asS'0-8080-607'
p1821
(lp1822
F0.07451472855294812
aI44
asS'0-8080-604'
p1823
(lp1824
F0.4656745104310321
aI151
asS'00070-303'
p1825
(lp1826
F0.248966647787283
aI61
asS'0-4050304'
p1827
(lp1828
F-0.017070687502483892
aI275
asS'0-4050305'
p1829
(lp1830
F-0.016073426972646358
aI71
asS'0-8080-608'
p1831
(lp1832
F-0.18734715765879234
aI10
asS'0-8080-609'
p1833
(lp1834
F-0.042986542553695134
aI1
asS'0-4050303'
p1835
(lp1836
F-0.16769993655508267
aI271
asS'0-9060-104'
p1837
(lp1838
F-0.06983413219668255
aI133
asS'0-9060-105'
p1839
(lp1840
F-0.12428720897606116
aI202
asS'0-9060-106'
p1841
(lp1842
F-0.14553427609965425
aI179
asS'0-9060-107'
p1843
(lp1844
F-0.02230375432394785
aI46
asS'0-9060-103'
p1845
(lp1846
F-0.2666048674664867
aI43
asS'0-6090-703'
p1847
(lp1848
F0.032608756636048536
aI1
asS'0-6090-706'
p1849
(lp1850
F0.25725514613111217
aI73
asS'0-6090-704'
p1851
(lp1852
F0.10053740060633756
aI248
asS'0-6090-705'
p1853
(lp1854
F0.6179835898867121
aI106
asS'0-6080-707'
p1855
(lp1856
F0.004702536413980697
aI12
asS'0-6080-706'
p1857
(lp1858
F0.01749205465236188
aI70
asS'0-3070-705'
p1859
(lp1860
F0.2586971455568016
aI11
asS'0-3070-704'
p1861
(lp1862
F0.5269321319964152
aI286
asS'0-3070-703'
p1863
(lp1864
F-0.04162024834941154
aI1
asS'0-6070-305'
p1865
(lp1866
F0.025683549125158533
aI57
asS'0-6070-306'
p1867
(lp1868
F-0.024134893459104197
aI15
asS'0-6070-307'
p1869
(lp1870
F0.027528818715791714
aI5
asS'0-4060-705'
p1871
(lp1872
F0.19424559338156622
aI58
asS'0-4060-704'
p1873
(lp1874
F0.5361079207893847
aI113
asS'0-4060-703'
p1875
(lp1876
F0.06256829515424664
aI1
asS'0-4070-103'
p1877
(lp1878
F0.06326378764468618
aI98
asS'0-4070-104'
p1879
(lp1880
F0.05528812611764503
aI87
asS'0-4070-105'
p1881
(lp1882
F0.03317401310603266
aI6
asS'0-10100-507'
p1883
(lp1884
F0.050319259208160855
aI4
asS'0-10100-504'
p1885
(lp1886
F0.2136551949426193
aI16
asS'0-10100-503'
p1887
(lp1888
F-0.01383534787697871
aI1
asS'0-1070303'
p1889
(lp1890
F0.00014921313529052058
aI2
asS'0-9070-507'
p1891
(lp1892
F-0.013538861604176881
aI112
asS'0-9070-506'
p1893
(lp1894
F-0.14250158200008078
aI146
asS'0-9070-505'
p1895
(lp1896
F-0.20755444077898655
aI175
asS'0-9070-504'
p1897
(lp1898
F-0.4014477346481901
aI105
asS'0-8070-306'
p1899
(lp1900
F0.019572566612766008
aI50
asS'0-8070-307'
p1901
(lp1902
F0.06213581090516536
aI15
asS'0-8070-304'
p1903
(lp1904
F-0.1932941492158545
aI93
asS'0-8070-305'
p1905
(lp1906
F-0.05589304881439663
aI81
asS'0-8070-303'
p1907
(lp1908
F-0.06882415174566354
aI32
asS'0-7050-303'
p1909
(lp1910
F-0.07467324220281464
aI53
asS'0-7050-305'
p1911
(lp1912
F-0.12708178246737206
aI73
asS'0-7050-304'
p1913
(lp1914
F-0.008132778050641942
aI108
asS'0-7050-306'
p1915
(lp1916
F-0.11201768239593876
aI4
asS'0-5080-205'
p1917
(lp1918
F0.011690790670677513
aI21
asS'0-5080-204'
p1919
(lp1920
F-0.005728292124999326
aI23
asS'0-5080-203'
p1921
(lp1922
F0.08368105281691376
aI18
asS'0-2070-204'
p1923
(lp1924
F0.026058630217663442
aI19
asS'0-2070-203'
p1925
(lp1926
F0.062176796887249544
aI199
asS'0-1060-703'
p1927
(lp1928
F-0.06812083033698053
aI1
asS'0-1050-604'
p1929
(lp1930
F0.06525791161351649
aI7
asS'0-6060104'
p1931
(lp1932
F-0.029038779898577893
aI64
asS'0-6060103'
p1933
(lp1934
F-0.03560615918944453
aI34
asS'0-1050-603'
p1935
(lp1936
F0.3479070473296574
aI23
asS'0-1060-704'
p1937
(lp1938
F0.8059794487991568
aI8
asS'0-6060-306'
p1939
(lp1940
F-0.010276428601396055
aI14
asS'0-6060-305'
p1941
(lp1942
F0.017568717871527414
aI61
asS'0-6060-304'
p1943
(lp1944
F0.11403414772614892
aI168
asS'0-6060-303'
p1945
(lp1946
F-0.022740121219359782
aI118
asS'0-2080003'
p1947
(lp1948
F0.0058020962110589686
aI10
asS'0-5090-606'
p1949
(lp1950
F0.07020530355671437
aI4
asS'0-5090-604'
p1951
(lp1952
F0.3986525563661732
aI26
asS'0-5090-605'
p1953
(lp1954
F0.3387285333750756
aI11
asS'01050-403'
p1955
(lp1956
F0.029754605007473678
aI6
asS'0-6070203'
p1957
(lp1958
F0.058483019390789065
aI5
asS'0-9090-403'
p1959
(lp1960
F0.30530250593282837
aI8
asS'0-10060006'
p1961
(lp1962
F0.01559127965490113
aI280
asS'0-10060007'
p1963
(lp1964
F0.02690617045561299
aI9
asS'0-10060004'
p1965
(lp1966
F-0.20568910567199142
aI197
asS'0-10060005'
p1967
(lp1968
F-0.5211800157800007
aI369
asS'0-10060003'
p1969
(lp1970
F-0.19655548838388237
aI34
asS'0-3080-604'
p1971
(lp1972
F0.8311434871784953
aI52
asS'0-3080-603'
p1973
(lp1974
F0.8408055295820218
aI86
asS'0-7100-405'
p1975
(lp1976
F0.0058913682858876965
aI2
asS'0-7070105'
p1977
(lp1978
F-0.045731444894852744
aI3
asS'0-7070104'
p1979
(lp1980
F0.10700385524504955
aI1
asS'0-7070103'
p1981
(lp1982
F-0.005817249443762787
aI8
asS'0-10060-505'
p1983
(lp1984
F-0.5310074877241211
aI381
asS'0-10060-504'
p1985
(lp1986
F-0.4151958403895438
aI101
asS'0-10060-507'
p1987
(lp1988
F-0.8204327807673901
aI797
asS'0-10060-506'
p1989
(lp1990
F-0.32166204210795385
aI622
asS'0-10060-503'
p1991
(lp1992
F-0.32996159642709183
aI2
asS'0-7060204'
p1993
(lp1994
F-0.09503557433653123
aI47
asS'0-10060-509'
p1995
(lp1996
F-0.8162363512994834
aI444
asS'0-10060-508'
p1997
(lp1998
F-0.8072845663175621
aI674
asS'0-7060203'
p1999
(lp2000
F0.02550576147154324
aI11
asS'0-4080-706'
p2001
(lp2002
F-0.012998495636527652
aI2
asS'0-4080-705'
p2003
(lp2004
F0.2995410324725427
aI73
asS'0-4080-704'
p2005
(lp2006
F0.15562886767792083
aI363
asS'0-4080-703'
p2007
(lp2008
F0.08628248894722601
aI1
asS'0-1080003'
p2009
(lp2010
F0.011473333215015388
aI7
asS'0-9080-709'
p2011
(lp2012
F-0.0803889180009098
aI6
asS'0-10060-611'
p2013
(lp2014
F-0.8482007886808501
aI21
asS'0-9080-705'
p2015
(lp2016
F0.5589389849751824
aI303
asS'0-9080-706'
p2017
(lp2018
F-0.2575396101031934
aI199
asS'0-9080-707'
p2019
(lp2020
F0.2630438844132553
aI219
asS'0-9080-703'
p2021
(lp2022
F-0.06339246463122306
aI1
asS'0-1050503'
p2023
(lp2024
F-0.038238387163397294
aI642
asS'0-3090-604'
p2025
(lp2026
F-0.04285623965490193
aI9
asS'0-3090-605'
p2027
(lp2028
F-0.057712149604248766
aI3
asS'0-5050-503'
p2029
(lp2030
F0.09990025065900078
aI35
asS'0-5050-505'
p2031
(lp2032
F0.05562387065285425
aI23
asS'0-5050-504'
p2033
(lp2034
F0.16092770878248722
aI35
asS'0-3090-603'
p2035
(lp2036
F0.25204229630418573
aI8
asS'0-9100-506'
p2037
(lp2038
F-0.0707585814068961
aI9
asS'0-9100-504'
p2039
(lp2040
F0.03366418965609643
aI12
asS'0-4050205'
p2041
(lp2042
F-0.01144156485831355
aI132
asS'0-8060-708'
p2043
(lp2044
F-0.07051947341758741
aI4
asS'0-4050206'
p2045
(lp2046
F-0.01919243877981594
aI4
asS'0-4050203'
p2047
(lp2048
F-0.0634754906895923
aI314
asS'0-7060-403'
p2049
(lp2050
F0.15779965776277888
aI68
asS'0-8060-703'
p2051
(lp2052
F0.03815338745826266
aI1
asS'0-8060-705'
p2053
(lp2054
F0.12729423284278168
aI197
asS'0-8060-704'
p2055
(lp2056
F0.32250704800328855
aI293
asS'0-8060-707'
p2057
(lp2058
F-0.24473161005289656
aI46
asS'0-8060-706'
p2059
(lp2060
F-0.3272855889582418
aI156
asS'0-5050503'
p2061
(lp2062
F-0.09206236970518944
aI28
asS'0-7080-103'
p2063
(lp2064
F-0.00047183951875226504
aI5
asS'0-9050303'
p2065
(lp2066
F0.022911288277550977
aI2
asS'0-9050305'
p2067
(lp2068
F-0.0129570169783213
aI1
asS'0-9050304'
p2069
(lp2070
F-0.5118361562438769
aI15
asS'0-10070-704'
p2071
(lp2072
F-0.47069613037742336
aI2457
asS'0-10070-705'
p2073
(lp2074
F0.4250766993412375
aI1977
asS'0-10070-706'
p2075
(lp2076
F-0.4225643588595219
aI1440
asS'0-10070-707'
p2077
(lp2078
F-0.5156197808593187
aI956
asS'0-10070-703'
p2079
(lp2080
F-0.02163585196383211
aI1
asS'0-2070-404'
p2081
(lp2082
F0.20804485114290505
aI20
asS'0-10070-708'
p2083
(lp2084
F-0.5463477877651253
aI296
asS'0-10070-709'
p2085
(lp2086
F-0.5624517759114772
aI221
asS'0-8060003'
p2087
(lp2088
F-0.03494580981750953
aI24
asS'0-8060004'
p2089
(lp2090
F-0.2507507684800312
aI77
asS'0-8060005'
p2091
(lp2092
F-0.1687020722041776
aI141
asS'0-8060006'
p2093
(lp2094
F-0.06390723104613551
aI64
asS'0-9050-709'
p2095
(lp2096
F-0.4989175874414319
aI2
asS'0-9050-708'
p2097
(lp2098
F-0.6549609398177171
aI18
asS'0-9050-707'
p2099
(lp2100
F-0.6519806118191444
aI30
asS'0-9050-706'
p2101
(lp2102
F-0.49290582960760726
aI29
asS'0-9050-705'
p2103
(lp2104
F-0.8357334233717308
aI12
asS'0-9050-704'
p2105
(lp2106
F0.4050614359297876
aI20
asS'0-9050-703'
p2107
(lp2108
F0.1372967883903283
aI1
asS'00050304'
p2109
(lp2110
F-0.023239462645278285
aI77
asS'00050303'
p2111
(lp2112
F0.01561530030831797
aI1871
asS'00070-203'
p2113
(lp2114
F0.21746906669595645
aI101
asS'0-6050-606'
p2115
(lp2116
F-0.0009188598584278368
aI7
asS'0-9060-207'
p2117
(lp2118
F-0.2631115552361362
aI64
asS'0-9060-206'
p2119
(lp2120
F-0.15556353496291428
aI206
asS'0-9060-205'
p2121
(lp2122
F-0.06310098041528922
aI262
asS'0-9060-204'
p2123
(lp2124
F-0.2722664601504787
aI154
asS'0-9060-203'
p2125
(lp2126
F0.010250251580891781
aI40
asS'0-4060-606'
p2127
(lp2128
F-0.03651113913453287
aI3
asS'0-3070-604'
p2129
(lp2130
F0.31181770208591825
aI69
asS'0-3070-605'
p2131
(lp2132
F0.13602058604353456
aI16
asS'0-3070-603'
p2133
(lp2134
F0.06321119398280543
aI138
asS'0-10070-308'
p2135
(lp2136
F-0.03893286146977931
aI99
asS'0-10070-309'
p2137
(lp2138
F-0.036948928229337305
aI61
asS'0-5060-405'
p2139
(lp2140
F0.05597303478037555
aI27
asS'0-5060-404'
p2141
(lp2142
F0.05780378659479368
aI116
asS'0-5060-403'
p2143
(lp2144
F0.23390830155975
aI123
asS'0-4060-604'
p2145
(lp2146
F0.10053281586356078
aI95
asS'0-6070-506'
p2147
(lp2148
F0.05445634270741663
aI17
asS'0-6050-605'
p2149
(lp2150
F0.025921537663065916
aI32
asS'0-6050-604'
p2151
(lp2152
F0.19861042764452627
aI24
asS'0-6050-603'
p2153
(lp2154
F0.575804028742043
aI30
asS'0-4060-603'
p2155
(lp2156
F0.5441546003632969
aI113
asS'0-2050203'
p2157
(lp2158
F-0.010609240683911754
aI866
asS'0-6080-603'
p2159
(lp2160
F0.5248846112872005
aI27
asS'0-6080-604'
p2161
(lp2162
F0.5335804196153673
aI171
asS'0-6080-605'
p2163
(lp2164
F0.18246114192042068
aI79
asS'0-2050205'
p2165
(lp2166
F-0.028423264201011284
aI23
asS'0-2050204'
p2167
(lp2168
F-0.07179460636997548
aI365
asS'0-6080-606'
p2169
(lp2170
F0.1518580846836446
aI27
asS'0-4070-203'
p2171
(lp2172
F0.0598405856956902
aI183
asS'0-4070-205'
p2173
(lp2174
F0.013732637746029952
aI17
asS'0-4070-204'
p2175
(lp2176
F0.07689618365642786
aI88
asS'0-10100-406'
p2177
(lp2178
F-0.1495617426825477
aI1
asS'0-10100-405'
p2179
(lp2180
F-0.07301432194779053
aI1
asS'0-9070-408'
p2181
(lp2182
F-0.03929284525209874
aI20
asS'0-9070-403'
p2183
(lp2184
F0.35043252989154144
aI44
asS'0-1070003'
p2185
(lp2186
F0.05652752764168373
aI161
asS'0-9070-406'
p2187
(lp2188
F-0.1838727968961575
aI125
asS'0-9070-407'
p2189
(lp2190
F-0.23250179767063495
aI42
asS'0-9070-404'
p2191
(lp2192
F-0.2026428010952211
aI113
asS'0-9070-405'
p2193
(lp2194
F0.004480122953519447
aI178
asS'0-8070-403'
p2195
(lp2196
F-0.05379160229773611
aI50
asS'0-8070-405'
p2197
(lp2198
F-0.08354854634744026
aI96
asS'0-8070-404'
p2199
(lp2200
F-0.0556926447116665
aI117
asS'0-8070-407'
p2201
(lp2202
F-0.06650923046187715
aI15
asS'0-8070-406'
p2203
(lp2204
F-0.008303653063015207
aI64
asS'0-7050-203'
p2205
(lp2206
F-0.12036627501636364
aI73
asS'0-7050-204'
p2207
(lp2208
F-0.1174185657174328
aI113
asS'0-7050-205'
p2209
(lp2210
F-0.10511532304547347
aI79
asS'0-7050-206'
p2211
(lp2212
F-0.17251862667386164
aI14
asS'0-1070-603'
p2213
(lp2214
F0.8254747261541995
aI32
asS'0-1070-604'
p2215
(lp2216
F0.13089898470751263
aI1
asS'0-5080-304'
p2217
(lp2218
F0.09340992135120935
aI32
asS'0-5080-305'
p2219
(lp2220
F-0.00968409637818977
aI19
asS'0-5080-303'
p2221
(lp2222
F0.008416440586308471
aI27
asS'0-2070-304'
p2223
(lp2224
F0.030720557254159092
aI17
asS'0-2070-303'
p2225
(lp2226
F0.2938749188907085
aI180
asS'0-1050-103'
p2227
(lp2228
F0.041666699958882544
aI256
asS'0-1050-104'
p2229
(lp2230
F0.017577174205920403
aI9
asS'01050304'
p2231
(lp2232
F-0.07183071517274986
aI7
asS'01050303'
p2233
(lp2234
F0.00885746415118934
aI1824
asS'0-6060-206'
p2235
(lp2236
F-0.005452029381687755
aI5
asS'0-6060-204'
p2237
(lp2238
F-0.13327358508614331
aI167
asS'0-6060-205'
p2239
(lp2240
F-0.05668236726660946
aI62
asS'0-6060-203'
p2241
(lp2242
F0.06963821406085567
aI133
asS'0-2080-505'
p2243
(lp2244
F-0.09427102796916581
aI8
asS'0-2080-504'
p2245
(lp2246
F0.2590053675204131
aI19
asS'0-2080-503'
p2247
(lp2248
F0.3894624701784194
aI74
asS'01050-503'
p2249
(lp2250
F0.03263494883491577
aI2
asS'0-10070007'
p2251
(lp2252
F-0.0019509418173335319
aI2
asS'0-10070006'
p2253
(lp2254
F-0.17948893739094546
aI61
asS'0-10060-510'
p2255
(lp2256
F-0.541731572956845
aI109
asS'0-10070004'
p2257
(lp2258
F-0.135317875194601
aI5
asS'0-10080-305'
p2259
(lp2260
F-0.00018311592746495658
aI56
asS'0-10080-304'
p2261
(lp2262
F-0.07689563042943925
aI12
asS'0-8060-305'
p2263
(lp2264
F-0.15545565768737135
aI170
asS'0-8060-307'
p2265
(lp2266
F-0.12700790922863234
aI24
asS'0-8060-306'
p2267
(lp2268
F-0.2020169009898462
aI83
asS'0-3080-704'
p2269
(lp2270
F0.5656177429324409
aI82
asS'0-3080-705'
p2271
(lp2272
F0.07111482362980893
aI4
asS'0-3080-703'
p2273
(lp2274
F0.05604641259816301
aI1
asS'0-10080-303'
p2275
(lp2276
F-0.047994520249078666
aI9
asS'0-10050005'
p2277
(lp2278
F0.08542685105777881
aI1
asS'0-10050004'
p2279
(lp2280
F0.0994593310821025
aI1
asS'0-10050006'
p2281
(lp2282
F0.14516441827856266
aI1
asS'0-10050003'
p2283
(lp2284
F0.12787986024675377
aI1
asS'0-10060-608'
p2285
(lp2286
F-0.5245658430933515
aI948
asS'0-10060-609'
p2287
(lp2288
F-0.8040296500042803
aI596
asS'0-10060-606'
p2289
(lp2290
F-0.548018661363924
aI932
asS'0-10060-607'
p2291
(lp2292
F-0.0245271072072214
aI989
asS'0-10060-604'
p2293
(lp2294
F-0.6037243730581237
aI254
asS'0-10060-605'
p2295
(lp2296
F-0.8400799256160043
aI701
asS'0-10060-603'
p2297
(lp2298
F0.5812965979084065
aI6
asS'0-10050-306'
p2299
(lp2300
F0.07206894206690212
aI1
asS'0-10050-307'
p2301
(lp2302
F-0.05361316763842275
aI1
asS'0-10050-304'
p2303
(lp2304
F0.07341400219396821
aI1
asS'0-10050-305'
p2305
(lp2306
F-0.09544473567188774
aI1
asS'0-10050-303'
p2307
(lp2308
F-0.009999181576415717
aI1
asS'0-9100-405'
p2309
(lp2310
F0.008333631864846773
aI8
asS'0-10050-308'
p2311
(lp2312
F-0.018634198446634637
aI1
asS'0-10050-309'
p2313
(lp2314
F-0.06660614312353132
aI1
asS'0-4080-606'
p2315
(lp2316
F0.08228966775427035
aI8
asS'0-10080-106'
p2317
(lp2318
F0.045577312203566686
aI27
asS'0-4080-604'
p2319
(lp2320
F0.4078957470628504
aI92
asS'0-4080-605'
p2321
(lp2322
F0.4067744354401875
aI23
asS'0-4080-603'
p2323
(lp2324
F0.8288111758583783
aI70
asS'00060-103'
p2325
(lp2326
F0.1160660888825529
aI246
asS'00060-104'
p2327
(lp2328
F0.0340772500932076
aI3
asS'0-9060304'
p2329
(lp2330
F-0.0118610849997728
aI4
asS'0-8060103'
p2331
(lp2332
F-0.16707685353666707
aI19
asS'0-8060105'
p2333
(lp2334
F-0.14355988663136923
aI54
asS'0-8060104'
p2335
(lp2336
F-0.07408666406513977
aI61
asS'0-8060106'
p2337
(lp2338
F-0.04217007746326223
aI14
asS'0-6060-707'
p2339
(lp2340
F0.01206197083824432
aI6
asS'02050-203'
p2341
(lp2342
F0.041757590899996797
aI2
asS'0-10050-410'
p2343
(lp2344
F-0.06860155481541032
aI1
asS'0-5050-403'
p2345
(lp2346
F0.04189029782858329
aI38
asS'0-5050-404'
p2347
(lp2348
F0.05730231798265566
aI68
asS'0-5050-405'
p2349
(lp2350
F0.015762830422609404
aI8
asS'0-5050-406'
p2351
(lp2352
F0.01211455268532607
aI4
asS'0-5070-705'
p2353
(lp2354
F0.3618595524355927
aI145
asS'0-5070-704'
p2355
(lp2356
F0.32392802795583936
aI386
asS'0-5070-706'
p2357
(lp2358
F0.1778873043791292
aI32
asS'0-5070-703'
p2359
(lp2360
F-0.029938369261036366
aI1
asS'0-4050503'
p2361
(lp2362
F-0.11868189247954809
aI56
asS'0-7080-206'
p2363
(lp2364
F-0.002192553654268639
aI3
asS'0-7080-205'
p2365
(lp2366
F0.004930130257678755
aI22
asS'0-7080-204'
p2367
(lp2368
F-0.024092809111205787
aI16
asS'0-7080-203'
p2369
(lp2370
F-0.038736880424792286
aI8
asS'0-10070-609'
p2371
(lp2372
F-0.5182091801724203
aI232
asS'0-10070-608'
p2373
(lp2374
F-0.41954341020166186
aI329
asS'0-10070-605'
p2375
(lp2376
F-0.39844751002002643
aI426
asS'0-10070-604'
p2377
(lp2378
F-0.46113175806651596
aI278
asS'0-10070-607'
p2379
(lp2380
F-0.011579223880544803
aI442
asS'0-10070-606'
p2381
(lp2382
F-0.3762936428746294
aI460
asS'0-10070-603'
p2383
(lp2384
F-0.2897546390558463
aI6
asS'0-4100-704'
p2385
(lp2386
F0.08925442223394686
aI6
asS'0-8100-405'
p2387
(lp2388
F-0.031301623335274295
aI3
asS'0-5060005'
p2389
(lp2390
F0.001559916250274955
aI62
asS'00050-603'
p2391
(lp2392
F-0.12333546377838803
aI1
asS'0-5060-206'
p2393
(lp2394
F0.007002930851787326
aI10
asS'0-9050-606'
p2395
(lp2396
F-0.3830023575701773
aI19
asS'0-9050-607'
p2397
(lp2398
F-0.35965272676405813
aI24
asS'0-9050-604'
p2399
(lp2400
F-0.3623039210963276
aI12
asS'0-9050-605'
p2401
(lp2402
F-0.8270616514077854
aI24
asS'0-5060-205'
p2403
(lp2404
F-0.009373025606410124
aI36
asS'00050004'
p2405
(lp2406
F-0.08280033560547616
aI9
asS'00050003'
p2407
(lp2408
F0.05326544167679711
aI298
asS'0-9060-306'
p2409
(lp2410
F-0.16161504904730303
aI190
asS'0-9060-307'
p2411
(lp2412
F-0.3838399497606503
aI132
asS'0-9060-304'
p2413
(lp2414
F-0.21811281684390582
aI131
asS'0-9060-305'
p2415
(lp2416
F-0.18789612684662443
aI267
asS'0-9060-303'
p2417
(lp2418
F-0.09079344030975285
aI28
asS'0-9060-308'
p2419
(lp2420
F-0.3347820809837609
aI13
asS'0-4080004'
p2421
(lp2422
F-0.014454172461048385
aI2
asS'0-7060-407'
p2423
(lp2424
F0.010904034125921324
aI11
asS'0-7060-406'
p2425
(lp2426
F-0.1201056991256241
aI39
asS'0-7060-405'
p2427
(lp2428
F0.002669890106346301
aI89
asS'0-7060-404'
p2429
(lp2430
F0.15384141155432887
aI135
asS'0-6070-106'
p2431
(lp2432
F-0.06604950379644446
aI11
asS'0-3070-104'
p2433
(lp2434
F0.008870164883311799
aI76
asS'0-6070-104'
p2435
(lp2436
F-0.0017209780215569157
aI76
asS'0-6070-105'
p2437
(lp2438
F-0.0581885798787478
aI29
asS'0-4060-605'
p2439
(lp2440
F0.040532444007238835
aI17
asS'0-7050-103'
p2441
(lp2442
F-0.09445950784869121
aI79
asS'0-6100-604'
p2443
(lp2444
F0.0635465454886892
aI4
asS'0-7050-106'
p2445
(lp2446
F-0.08461097070920762
aI71
asS'0-7050-105'
p2447
(lp2448
F-0.14694022690879244
aI146
asS'0-7050-104'
p2449
(lp2450
F-0.045774723211583886
aI184
asS'0-5060-504'
p2451
(lp2452
F0.07853964776499033
aI103
asS'0-5060-505'
p2453
(lp2454
F0.09560325360178142
aI24
asS'0-5060-503'
p2455
(lp2456
F0.03176589799068924
aI112
asS'0-7090-703'
p2457
(lp2458
F0.06768648997067095
aI1
asS'0-7090-705'
p2459
(lp2460
F0.5371976336947945
aI128
asS'0-7090-704'
p2461
(lp2462
F0.5165487328060865
aI299
asS'0-7090-707'
p2463
(lp2464
F-0.02556269106071843
aI11
asS'0-7090-706'
p2465
(lp2466
F0.37621964622839
aI86
asS'0-6050-706'
p2467
(lp2468
F0.08514863901568673
aI9
asS'0-6050-707'
p2469
(lp2470
F0.08149606481703187
aI2
asS'0-4060-505'
p2471
(lp2472
F0.13699054005381406
aI9
asS'0-6050-705'
p2473
(lp2474
F0.1955071492282041
aI14
asS'0-4060-503'
p2475
(lp2476
F0.3091101801355567
aI162
asS'0-6050-703'
p2477
(lp2478
F0.0172109508747032
aI1
asS'0-6080-503'
p2479
(lp2480
F0.41814723415361277
aI44
asS'0-2050103'
p2481
(lp2482
F-0.005440754373321774
aI591
asS'0-2050104'
p2483
(lp2484
F-0.005846405975527855
aI190
asS'0-2050105'
p2485
(lp2486
F0.05319878000121282
aI13
asS'0-6080-505'
p2487
(lp2488
F0.038835343368495714
aI40
asS'0-6080-504'
p2489
(lp2490
F0.1253111781800853
aI105
asS'0-3060-703'
p2491
(lp2492
F-0.06840578611954272
aI1
asS'0-3060-704'
p2493
(lp2494
F0.6853837110000581
aI74
asS'0-3060-705'
p2495
(lp2496
F0.3856270212513847
aI10
asS'0-4070-303'
p2497
(lp2498
F0.05575881778475836
aI176
asS'0-4070-304'
p2499
(lp2500
F0.06386058784831886
aI111
asS'0-4070-305'
p2501
(lp2502
F0.07524842825564905
aI21
asS'0-8070-508'
p2503
(lp2504
F-0.025708835631384402
aI11
asS'0-1070103'
p2505
(lp2506
F0.052189480140502946
aI67
asS'0-1080-303'
p2507
(lp2508
F0.2859317863870088
aI55
asS'0-8070-503'
p2509
(lp2510
F0.3328928204846697
aI48
asS'0-8070-504'
p2511
(lp2512
F-0.04248222284097551
aI135
asS'0-8070-505'
p2513
(lp2514
F-0.10740900965129997
aI149
asS'0-8070-506'
p2515
(lp2516
F-0.10126415660789925
aI64
asS'0-8070-507'
p2517
(lp2518
F0.043049418400164255
aI15
asS'0-1070-503'
p2519
(lp2520
F0.6332356401660452
aI84
asS'0-1070-504'
p2521
(lp2522
F0.8163585920124554
aI3
asS'0-4080-405'
p2523
(lp2524
F0.024383973386248703
aI7
asS'0-3070004'
p2525
(lp2526
F0.0373772500756348
aI43
asS'01050204'
p2527
(lp2528
F0.015650544418948392
aI3
asS'01050203'
p2529
(lp2530
F0.026291430970445652
aI739
asS'0-6060-503'
p2531
(lp2532
F0.3802114466469709
aI62
asS'0-6060-505'
p2533
(lp2534
F0.2032080719095013
aI64
asS'0-6060-504'
p2535
(lp2536
F0.6027878968262772
aI115
asS'0-6060-506'
p2537
(lp2538
F-0.05283741643216213
aI11
asS'0-10060-707'
p2539
(lp2540
F-0.8383911429309705
aI1942
asS'0-8050103'
p2541
(lp2542
F-0.42043180593149027
aI62
asS'0-10060-705'
p2543
(lp2544
F-0.8099673486127403
aI2013
asS'0-10060-704'
p2545
(lp2546
F-0.8037715159906232
aI2233
asS'0-10060-703'
p2547
(lp2548
F-0.08811380943977318
aI1
asS'0-8050107'
p2549
(lp2550
F0.07351470578742127
aI3
asS'0-8050104'
p2551
(lp2552
F-0.18754874000938504
aI138
asS'0-7050104'
p2553
(lp2554
F-0.3699738081728489
aI198
asS'0-2080-404'
p2555
(lp2556
F0.22878807434005058
aI17
asS'0-2080-405'
p2557
(lp2558
F-0.06789234696200605
aI5
asS'0-7050107'
p2559
(lp2560
F-0.04961456273812795
aI3
asS'0-10060-709'
p2561
(lp2562
F-0.8208554677402136
aI520
asS'0-10060-708'
p2563
(lp2564
F-0.633005195845014
aI993
asS'0-8070-204'
p2565
(lp2566
F-0.07798891066371212
aI85
asS'0-8080-105'
p2567
(lp2568
F-0.049642037220498716
aI5
asS'0-8080-104'
p2569
(lp2570
F0.02948762858186437
aI9
asS'0-10070105'
p2571
(lp2572
F-0.00873897971872355
aI4
asS'0-10050-709'
p2573
(lp2574
F-0.10527104842415783
aI1
asS'0-4060003'
p2575
(lp2576
F0.012689211721994258
aI202
asS'0-10050104'
p2577
(lp2578
F-0.012454395514919697
aI1
asS'0-10050105'
p2579
(lp2580
F0.06801991462433207
aI1
asS'0-10050106'
p2581
(lp2582
F0.1034079799850153
aI1
asS'0-8110-706'
p2583
(lp2584
F0.026695542823762908
aI3
asS'0-8110-703'
p2585
(lp2586
F0.017413790112907973
aI1
asS'0-10050103'
p2587
(lp2588
F-0.07046778766423348
aI1
asS'0-5050-703'
p2589
(lp2590
F-0.046639213507813776
aI1
asS'0-3090-403'
p2591
(lp2592
F0.25235966645017505
aI8
asS'0-5050-705'
p2593
(lp2594
F0.3647343487665631
aI2
asS'0-5050-704'
p2595
(lp2596
F0.7820390264625232
aI4
asS'0-10050-207'
p2597
(lp2598
F0.001650495403401675
aI1
asS'0-10050-206'
p2599
(lp2600
F0.041013929651203485
aI1
asS'0-10050-205'
p2601
(lp2602
F0.03124873921230542
aI1
asS'0-10050-204'
p2603
(lp2604
F-0.06486651817881521
aI1
asS'0-10050-203'
p2605
(lp2606
F-0.0606461456396792
aI1
asS'0-4080-103'
p2607
(lp2608
F-0.013887341997622498
aI3
asS'0-10080-603'
p2609
(lp2610
F0.6460026854676326
aI11
asS'0-10080-604'
p2611
(lp2612
F0.28769682854351103
aI153
asS'0-4080-104'
p2613
(lp2614
F-0.03418375501712178
aI4
asS'0-10080-606'
p2615
(lp2616
F0.2563201508982298
aI214
asS'0-10080-607'
p2617
(lp2618
F-0.3713670861464835
aI156
asS'0-10080-608'
p2619
(lp2620
F-0.2612771579322743
aI51
asS'0-10080-609'
p2621
(lp2622
F-0.3689105960868328
aI13
asS'0-4080-204'
p2623
(lp2624
F0.0241971319855097
aI28
asS'0-10080-504'
p2625
(lp2626
F0.13113361963537618
aI53
asS'0-8100-504'
p2627
(lp2628
F0.09875993454442411
aI1
asS'0-8100-505'
p2629
(lp2630
F-0.025916505653369417
aI7
asS'0-8100-506'
p2631
(lp2632
F-0.014174506961751238
aI1
asS'0-10050-510'
p2633
(lp2634
F0.12212829210262974
aI1
asS'0-10070-610'
p2635
(lp2636
F-0.6235600200709115
aI4
asS'00050104'
p2637
(lp2638
F-0.0005828105624138686
aI8
asS'00050103'
p2639
(lp2640
F0.006323296814086079
aI516
asS'0-3050-305'
p2641
(lp2642
F-0.02843833002569951
aI11
asS'0-3050-304'
p2643
(lp2644
F0.13435836325992934
aI50
asS'0-5070-606'
p2645
(lp2646
F-0.033725248815052344
aI18
asS'0-3050-303'
p2647
(lp2648
F0.27753561983509406
aI111
asS'0-5070-603'
p2649
(lp2650
F0.1857705749372
aI100
asS'0-7070-307'
p2651
(lp2652
F0.03490984003505586
aI2
asS'0-7070-306'
p2653
(lp2654
F0.009022344209365069
aI51
asS'0-7070-305'
p2655
(lp2656
F-0.1508473017150168
aI92
asS'0-7070-304'
p2657
(lp2658
F0.061451332745739454
aI104
asS'0-7070-303'
p2659
(lp2660
F-0.04072624304607533
aI76
asS'0-3050404'
p2661
(lp2662
F-0.02272454127239478
aI173
asS'0-3050403'
p2663
(lp2664
F-0.03670909213042543
aI353
asS'0-7080-306'
p2665
(lp2666
F0.10288267700076334
aI38
asS'0-1060-603'
p2667
(lp2668
F0.10108630456799572
aI40
asS'0-7080-304'
p2669
(lp2670
F0.03666460912874695
aI44
asS'0-7080-305'
p2671
(lp2672
F0.0099126970142418
aI23
asS'0-7080-303'
p2673
(lp2674
F0.0619019878311502
aI12
asS'0-6060005'
p2675
(lp2676
F-0.040071797536608736
aI63
asS'0-10070005'
p2677
(lp2678
F-0.16606418430021494
aI14
asS'0-2060-505'
p2679
(lp2680
F-0.07507371683839223
aI3
asS'0-2060-504'
p2681
(lp2682
F0.24041756516473856
aI23
asS'0-2060-503'
p2683
(lp2684
F0.19134625678387884
aI148
asS'0-6050503'
p2685
(lp2686
F-0.07810607123570348
aI24
asS'0-10060-103'
p2687
(lp2688
F-0.027257320947549353
aI49
asS'0-4090-703'
p2689
(lp2690
F-0.13763044212315478
aI1
asS'0-4090-704'
p2691
(lp2692
F0.8002982699681995
aI78
asS'0-4090-705'
p2693
(lp2694
F-0.5188679441457865
aI33
asS'0-9050-103'
p2695
(lp2696
F-0.07618841619247124
aI24
asS'0-9050-105'
p2697
(lp2698
F-0.12098900641168876
aI136
asS'0-9050-104'
p2699
(lp2700
F-0.8954710792003507
aI118
asS'0-9050-107'
p2701
(lp2702
F-0.2816031882504618
aI3
asS'0-9050-106'
p2703
(lp2704
F-0.7356469813117585
aI57
asS'0-6080-403'
p2705
(lp2706
F0.37068354884643356
aI44
asS'0-2050003'
p2707
(lp2708
F0.00857505069179191
aI364
asS'0-2050005'
p2709
(lp2710
F0.014997543635794204
aI8
asS'0-2050004'
p2711
(lp2712
F0.0550753377806273
aI93
asS'0-6080-404'
p2713
(lp2714
F0.23720960326489765
aI71
asS'0-6080-405'
p2715
(lp2716
F0.09558487397809962
aI31
asS'0-6050304'
p2717
(lp2718
F-0.2176935591556205
aI147
asS'0-6050305'
p2719
(lp2720
F-0.10536392094197741
aI30
asS'0-6050303'
p2721
(lp2722
F-0.18914026517380683
aI57
asS'0-9060-408'
p2723
(lp2724
F-0.3234503383814235
aI39
asS'0-10060-108'
p2725
(lp2726
F-0.7946605568052136
aI11
asS'0-9060-403'
p2727
(lp2728
F-0.19960277420948622
aI26
asS'0-9060-405'
p2729
(lp2730
F-0.22517842453358133
aI203
asS'0-9060-404'
p2731
(lp2732
F-0.19927213864073173
aI116
asS'0-9060-407'
p2733
(lp2734
F-0.26971033154851726
aI108
asS'0-9060-406'
p2735
(lp2736
F-0.18934032334449927
aI188
asS'0-7060-508'
p2737
(lp2738
F0.0306819138543529
aI4
asS'0-7060-506'
p2739
(lp2740
F-0.09299040541074512
aI8
asS'0-7060-507'
p2741
(lp2742
F0.1156878548237478
aI1
asS'0-7060-504'
p2743
(lp2744
F0.3049153218580798
aI119
asS'0-7060-505'
p2745
(lp2746
F-0.1531936407721575
aI92
asS'0-7060-503'
p2747
(lp2748
F0.298404911831499
aI60
asS'0-8070-603'
p2749
(lp2750
F0.026922242076798775
aI24
asS'0-8070-607'
p2751
(lp2752
F0.009061407453060194
aI32
asS'0-8070-606'
p2753
(lp2754
F-0.14741043850780047
aI104
asS'0-8070-605'
p2755
(lp2756
F0.1487491965490818
aI162
asS'0-8070-604'
p2757
(lp2758
F0.017586730627353525
aI185
asS'0-6100-704'
p2759
(lp2760
F0.812228085224719
aI129
asS'0-6100-705'
p2761
(lp2762
F0.05588134749356542
aI32
asS'0-8070-609'
p2763
(lp2764
F0.05877529941015891
aI1
asS'0-8070-608'
p2765
(lp2766
F0.013303737920845955
aI11
asS'0-6100-703'
p2767
(lp2768
F-0.025496054351162173
aI1
asS'00060304'
p2769
(lp2770
F-0.05432377685735623
aI11
asS'00060303'
p2771
(lp2772
F0.032208961770732174
aI353
asS'0-5060-606'
p2773
(lp2774
F0.11816235908004064
aI10
asS'0-5060-605'
p2775
(lp2776
F0.1679441347991078
aI59
asS'0-5060-604'
p2777
(lp2778
F0.04338522157842145
aI122
asS'0-5060-603'
p2779
(lp2780
F0.7934638749855406
aI85
asS'0-7090-603'
p2781
(lp2782
F0.6010028944928638
aI3
asS'0-7090-604'
p2783
(lp2784
F0.38214054219966087
aI88
asS'0-7090-605'
p2785
(lp2786
F0.06461899786645203
aI32
asS'0-7090-606'
p2787
(lp2788
F-0.010939357602993662
aI7
asS'02050503'
p2789
(lp2790
F-0.00768332266922234
aI12467
asS'0-4060-404'
p2791
(lp2792
F0.15651343232844878
aI97
asS'0-4060-405'
p2793
(lp2794
F0.08550316054690647
aI6
asS'0-4060-403'
p2795
(lp2796
F0.09860260309467474
aI198
asS'0-7100-707'
p2797
(lp2798
F0.017111078749568905
aI17
asS'0-7100-706'
p2799
(lp2800
F0.19065225071784114
aI8
asS'0-7100-705'
p2801
(lp2802
F0.31911767368227406
aI29
asS'0-7100-704'
p2803
(lp2804
F0.8252675793384836
aI129
asS'0-7100-703'
p2805
(lp2806
F0.14532137044348745
aI1
asS'0-3060-403'
p2807
(lp2808
F0.33779097111006895
aI219
asS'0-3060-406'
p2809
(lp2810
F-0.041411840548904066
aI2
asS'0-3060-405'
p2811
(lp2812
F0.03612344687809426
aI10
asS'0-3060-404'
p2813
(lp2814
F0.14894654341319882
aI60
asS'0-10060-710'
p2815
(lp2816
F-0.8020923349607851
aI143
asS'0-1070-403'
p2817
(lp2818
F0.451177002053979
aI123
asS'0-1070-404'
p2819
(lp2820
F-0.027849579177647483
aI7
asS'0-1070-405'
p2821
(lp2822
F-0.02240075993123092
aI3
asS'0-1050-303'
p2823
(lp2824
F0.1854264519684014
aI67
asS'0-1050-304'
p2825
(lp2826
F0.10164523557579865
aI6
asS'01050104'
p2827
(lp2828
F-0.013264365479188342
aI6
asS'01050103'
p2829
(lp2830
F0.06804804744233621
aI365
asS'0-8050003'
p2831
(lp2832
F-0.3555591601085162
aI70
asS'0-8050007'
p2833
(lp2834
F-0.003356701817745597
aI2
asS'0-8050006'
p2835
(lp2836
F-0.21612692314517773
aI89
asS'0-8050005'
p2837
(lp2838
F-0.28759326043134487
aI156
asS'0-8050004'
p2839
(lp2840
F-0.24766315125029353
aI153
asS'0-2080-303'
p2841
(lp2842
F0.19905441124508916
aI96
asS'0-2080-305'
p2843
(lp2844
F-0.13915747013334445
aI1
asS'0-2080-304'
p2845
(lp2846
F-0.0849727271622488
aI1
asS'0-8090-606'
p2847
(lp2848
F0.2342305080315014
aI42
asS'0-3070103'
p2849
(lp2850
F0.0072510155390706635
aI19
asS'0-3070104'
p2851
(lp2852
F0.03633996183332846
aI6
asS'0-3080-103'
p2853
(lp2854
F0.15449051378747647
aI14
asS'0-8050-703'
p2855
(lp2856
F0.1480888469522265
aI1
asS'0-8050-704'
p2857
(lp2858
F0.31734490482059907
aI25
asS'0-8050-705'
p2859
(lp2860
F0.18032498406427813
aI27
asS'0-8050-706'
p2861
(lp2862
F-0.37496302776711665
aI26
asS'0-8050-707'
p2863
(lp2864
F-0.48184831933585837
aI14
asS'0-10090-306'
p2865
(lp2866
F0.05562414596971036
aI4
asS'0-10090-307'
p2867
(lp2868
F-0.05279636232098463
aI13
asS'0-10090-305'
p2869
(lp2870
F-0.03363299657206811
aI13
asS'0-2050-104'
p2871
(lp2872
F0.04516966402028216
aI38
asS'0-4050-303'
p2873
(lp2874
F0.11936958396645732
aI102
asS'0-4050-304'
p2875
(lp2876
F0.06332549693993254
aI77
asS'0-4050-305'
p2877
(lp2878
F-0.029761818299843645
aI5
asS'0-2050-103'
p2879
(lp2880
F0.007173174823336667
aI256
asS'0-10050205'
p2881
(lp2882
F0.03577238194094698
aI1
asS'0-10050204'
p2883
(lp2884
F0.036191218914984113
aI1
asS'0-5050-603'
p2885
(lp2886
F0.1766026799559833
aI22
asS'0-3090-303'
p2887
(lp2888
F-0.019329962558123512
aI7
asS'0-5050-606'
p2889
(lp2890
F0.13309810884647297
aI1
asS'0-5050-604'
p2891
(lp2892
F0.07841918905597792
aI21
asS'0-5050-605'
p2893
(lp2894
F0.16694619459760068
aI2
asS'0-10050-504'
p2895
(lp2896
F0.08060707981225815
aI1
asS'0-10050-505'
p2897
(lp2898
F0.1125481139494808
aI1
asS'0-10050-506'
p2899
(lp2900
F-0.12407916514361356
aI1
asS'0-10050-507'
p2901
(lp2902
F-0.07846604040880532
aI1
asS'0-10050-508'
p2903
(lp2904
F-0.049483690805464026
aI1
asS'0-10050-509'
p2905
(lp2906
F-0.010969621112743161
aI1
asS'0-10080-709'
p2907
(lp2908
F0.006078182625646855
aI37
asS'0-10080-708'
p2909
(lp2910
F0.09612849026571474
aI184
asS'0-10080-703'
p2911
(lp2912
F0.09683339843501199
aI1
asS'0-10080-705'
p2913
(lp2914
F-0.24688715739519923
aI1590
asS'0-10080-704'
p2915
(lp2916
F0.7869776982081911
aI1544
asS'0-10080-707'
p2917
(lp2918
F-0.3602556621493089
aI867
asS'0-10080-706'
p2919
(lp2920
F0.4062346220396631
aI1017
asS'0-8100-606'
p2921
(lp2922
F-0.09486659511326641
aI4
asS'0-8100-605'
p2923
(lp2924
F0.039853380241308634
aI7
asS'0-8100-604'
p2925
(lp2926
F0.8155801644912142
aI17
asS'0-8100-603'
p2927
(lp2928
F0.6170719524513222
aI4
asS'0-9070-305'
p2929
(lp2930
F-0.12994530377501212
aI131
asS'0-9070-304'
p2931
(lp2932
F-0.11356740863090081
aI80
asS'0-9070-307'
p2933
(lp2934
F-0.26222783432403035
aI30
asS'0-9070-306'
p2935
(lp2936
F-0.15418195907947696
aI132
asS'0-9070-303'
p2937
(lp2938
F-0.05266293179323712
aI31
asS'0-9070-308'
p2939
(lp2940
F-0.05776664256024057
aI5
asS'0-1050003'
p2941
(lp2942
F0.03108756615262086
aI356
asS'0-3060403'
p2943
(lp2944
F-0.0013017064781756385
aI5
asS'0-1050004'
p2945
(lp2946
F0.04140260574655551
aI31
asS'01060003'
p2947
(lp2948
F0.1003927449918253
aI169
asS'01060-403'
p2949
(lp2950
F0.3019186102178342
aI7
asS'0-1060-104'
p2951
(lp2952
F0.07774441029752621
aI38
asS'0-1060-103'
p2953
(lp2954
F0.11797844411568835
aI292
asS'0-3050-204'
p2955
(lp2956
F0.09528910195431614
aI54
asS'00070-703'
p2957
(lp2958
F-0.01662861670481225
aI1
asS'00070-704'
p2959
(lp2960
F-0.025162700735196296
aI5
asS'0-3050-203'
p2961
(lp2962
F0.056115314098648894
aI170
asS'0-7070-206'
p2963
(lp2964
F0.03961265774580012
aI28
asS'0-7070-204'
p2965
(lp2966
F-0.063117861013836
aI85
asS'0-7070-205'
p2967
(lp2968
F-0.05519263556365349
aI49
asS'0-7070-203'
p2969
(lp2970
F-0.03276512351108763
aI51
asS'0-3050503'
p2971
(lp2972
F-0.03713965173341554
aI135
asS'0-7080-403'
p2973
(lp2974
F0.17022021988955932
aI35
asS'0-7080-405'
p2975
(lp2976
F0.010495279017619537
aI61
asS'0-7080-404'
p2977
(lp2978
F0.04453337253763544
aI103
asS'0-7080-407'
p2979
(lp2980
F-0.05342170260709135
aI5
asS'0-7080-406'
p2981
(lp2982
F0.05452790191414386
aI20
asS'00070003'
p2983
(lp2984
F0.11210143127964999
aI105
asS'0-3070-303'
p2985
(lp2986
F0.19078425733152343
aI199
asS'0-7060-203'
p2987
(lp2988
F-0.06627544075289546
aI88
asS'0-7060-205'
p2989
(lp2990
F-0.19788725299673587
aI121
asS'0-7060-204'
p2991
(lp2992
F-0.1516515734120051
aI160
asS'0-3070-305'
p2993
(lp2994
F0.03338281626096998
aI3
asS'0-7060-206'
p2995
(lp2996
F0.03868306796674459
aI37
asS'0-2060-404'
p2997
(lp2998
F0.10684964260182626
aI42
asS'0-2060-406'
p2999
(lp3000
F-0.08787515619973257
aI3
asS'0-2060-403'
p3001
(lp3002
F0.43342850100206193
aI199
asS'0-10080-105'
p3003
(lp3004
F-0.008146679848190317
aI8
asS'0-4090-403'
p3005
(lp3006
F-0.052203903098035256
aI20
asS'0-6050206'
p3007
(lp3008
F-0.007504988806838947
aI25
asS'0-6050205'
p3009
(lp3010
F-0.07310473160756875
aI146
asS'0-6050204'
p3011
(lp3012
F-0.25904040635276643
aI230
asS'0-6050203'
p3013
(lp3014
F-0.08923136072748986
aI112
asS'0-1080-103'
p3015
(lp3016
F0.12223425241791774
aI13
asS'0-8070-708'
p3017
(lp3018
F0.028475903188391105
aI20
asS'0-8070-703'
p3019
(lp3020
F0.018942312453329724
aI1
asS'0-8070-706'
p3021
(lp3022
F-0.21880291294178256
aI198
asS'0-8070-707'
p3023
(lp3024
F0.1312479978286527
aI99
asS'0-8070-704'
p3025
(lp3026
F0.324695765592166
aI535
asS'0-8070-705'
p3027
(lp3028
F0.3678077798672325
aI279
asS'00060204'
p3029
(lp3030
F0.010193282149879478
aI8
asS'00060203'
p3031
(lp3032
F0.02867711813937229
aI537
asS'0-5060-706'
p3033
(lp3034
F0.14091045737601807
aI13
asS'0-5060-704'
p3035
(lp3036
F0.23450050853929127
aI185
asS'0-5060-705'
p3037
(lp3038
F0.26629418713290853
aI93
asS'0-8090-304'
p3039
(lp3040
F0.00020727802221584887
aI16
asS'0-8090-305'
p3041
(lp3042
F0.10050731493634577
aI17
asS'0-7090-503'
p3043
(lp3044
F0.42507640261407403
aI4
asS'0-7090-505'
p3045
(lp3046
F0.1900476738850346
aI29
asS'0-7090-504'
p3047
(lp3048
F0.337274762175133
aI23
asS'0-4060-303'
p3049
(lp3050
F0.23894138662475745
aI227
asS'0-6050-103'
p3051
(lp3052
F-0.005936831809421686
aI110
asS'0-4060-305'
p3053
(lp3054
F0.017542220079462434
aI8
asS'0-6050-105'
p3055
(lp3056
F-0.09548976172330607
aI95
asS'0-6050-106'
p3057
(lp3058
F-0.08626486757761058
aI20
asS'0-10060-610'
p3059
(lp3060
F-0.8143260711919582
aI183
asS'01050003'
p3061
(lp3062
F0.0822335471618537
aI178
asS'0-7100-606'
p3063
(lp3064
F0.013551494159649983
aI10
asS'0-7100-604'
p3065
(lp3066
F0.013586756308134135
aI13
asS'0-7100-603'
p3067
(lp3068
F0.07659076908322074
aI1
asS'0-3060-503'
p3069
(lp3070
F0.24200403157361
aI156
asS'0-3060-506'
p3071
(lp3072
F-0.11178641482100952
aI1
asS'0-3060-504'
p3073
(lp3074
F0.12280005279658848
aI64
asS'0-3060-505'
p3075
(lp3076
F0.009870572932990474
aI3
asS'0-9060205'
p3077
(lp3078
F0.1244002792100696
aI1
asS'0-1050-203'
p3079
(lp3080
F0.048594137291209046
aI134
asS'0-1050-204'
p3081
(lp3082
F0.059099679637677885
aI21
asS'0-10050304'
p3083
(lp3084
F0.09177210247207745
aI1
asS'0-8050303'
p3085
(lp3086
F-0.2974333113771368
aI7
asS'0-8050304'
p3087
(lp3088
F-0.368919281242289
aI32
asS'0-8050305'
p3089
(lp3090
F-0.2307706129008985
aI11
asS'0-2080-203'
p3091
(lp3092
F0.06714111993381537
aI70
asS'0-2080-204'
p3093
(lp3094
F0.01780478512642049
aI3
asS'0-8080-307'
p3095
(lp3096
F-0.06689893568982583
aI4
asS'0-8080-306'
p3097
(lp3098
F0.023919959414528173
aI28
asS'0-8080-305'
p3099
(lp3100
F0.007953654971703507
aI57
asS'0-8080-304'
p3101
(lp3102
F-0.01670533034652851
aI23
asS'0-8080-303'
p3103
(lp3104
F0.006404763723801596
aI4
asS'0-3070203'
p3105
(lp3106
F-0.05206701958647589
aI5
asS'0-6070-605'
p3107
(lp3108
F0.11112710347530841
aI96
asS'0-6070-604'
p3109
(lp3110
F0.3049152243967124
aI162
asS'0-6070-607'
p3111
(lp3112
F0.04774040810226973
aI5
asS'0-6070-606'
p3113
(lp3114
F0.18663651760639532
aI37
asS'0-6070-603'
p3115
(lp3116
F0.64694079716937
aI70
asS'0-3080-203'
p3117
(lp3118
F0.13215841149476779
aI34
asS'0-3080-204'
p3119
(lp3120
F0.02375247301238491
aI4
asS'0-8050-403'
p3121
(lp3122
F-0.14354721773357398
aI30
asS'0-8050-406'
p3123
(lp3124
F-0.19692043316939728
aI26
asS'0-8050-405'
p3125
(lp3126
F-0.20886781677090843
aI74
asS'0-8050-404'
p3127
(lp3128
F-0.17242396999036577
aI63
asS'0-10090-206'
p3129
(lp3130
F0.080842311478379
aI12
asS'0-1070004'
p3131
(lp3132
F-0.03929596644043595
aI4
asS'0-2050-204'
p3133
(lp3134
F0.10423931854065646
aI40
asS'0-2050-203'
p3135
(lp3136
F0.04094167290635073
aI158
asS'0-6060204'
p3137
(lp3138
F-0.08547358155889137
aI27
asS'0-6060205'
p3139
(lp3140
F-0.04113312294525582
aI12
asS'0-6060203'
p3141
(lp3142
F-0.027725799489012548
aI12
asS'0-10050-409'
p3143
(lp3144
F-0.011663821598155572
aI1
asS'0-10050-408'
p3145
(lp3146
F-0.05176988832892487
aI1
asS'0-10050-405'
p3147
(lp3148
F0.04009776504820056
aI1
asS'0-10050-404'
p3149
(lp3150
F-0.13920356672773898
aI1
asS'0-10050-407'
p3151
(lp3152
F-0.03620694901844801
aI1
asS'0-10050-406'
p3153
(lp3154
F0.1410237547436026
aI1
asS'0-4080-303'
p3155
(lp3156
F0.3137660322500698
aI41
asS'0-10080-403'
p3157
(lp3158
F-0.06363421294634553
aI2
asS'0-10080-406'
p3159
(lp3160
F-0.10775665315704289
aI114
asS'0-10080-407'
p3161
(lp3162
F-0.20299841663275683
aI40
asS'0-4080-305'
p3163
(lp3164
F0.03518621280458642
aI10
asS'0-4080-304'
p3165
(lp3166
F0.03871804513605555
aI31
asS'0-10080-408'
p3167
(lp3168
F-0.0068568453326739165
aI31
asS'0-10080-409'
p3169
(lp3170
F-0.07491092031500764
aI1
asS'0-4070-405'
p3171
(lp3172
F0.10436738342845359
aI16
asS'0-4070-404'
p3173
(lp3174
F0.08635501249805297
aI104
asS'00070103'
p3175
(lp3176
F0.02497411504992319
aI67
asS'0-4070-403'
p3177
(lp3178
F0.132419330350174
aI182
asS'0-8100-706'
p3179
(lp3180
F0.37747241064560005
aI13
asS'0-8100-704'
p3181
(lp3182
F0.80441504390987
aI294
asS'0-8100-705'
p3183
(lp3184
F0.12783916282662322
aI42
asS'0-8100-703'
p3185
(lp3186
F0.07718097944777927
aI1
asS'0-9070-204'
p3187
(lp3188
F-0.09740169354689988
aI73
asS'0-9070-205'
p3189
(lp3190
F-0.1546498474903732
aI117
asS'0-9070-206'
p3191
(lp3192
F-0.08646805517050767
aI79
asS'0-9070-207'
p3193
(lp3194
F-0.025256799945940232
aI30
asS'0-9070-203'
p3195
(lp3196
F-0.05276909377010972
aI16
asS'00060-603'
p3197
(lp3198
F0.8193419052121786
aI23
asS'01060203'
p3199
(lp3200
F-0.009588449380760124
aI364
asS'0-3070-304'
p3201
(lp3202
F0.0283004100925974
aI63
asS'0-10050-710'
p3203
(lp3204
F-0.09336760472768083
aI1
asS'0-4090-503'
p3205
(lp3206
F0.5778384970637509
aI5
asS'0-4090-504'
p3207
(lp3208
F0.4013446372067217
aI11
asS'0-4090-505'
p3209
(lp3210
F-0.058535454761075856
aI3
asS'00070-603'
p3211
(lp3212
F0.6246150322397783
aI15
asS'0-3050-104'
p3213
(lp3214
F-0.0008066807163034234
aI103
asS'0-3050-103'
p3215
(lp3216
F-0.008780646455180077
aI227
asS'00070-604'
p3217
(lp3218
F0.5101201519491448
aI13
asS'0-7070-503'
p3219
(lp3220
F0.4131937438991101
aI87
asS'0-3090-504'
p3221
(lp3222
F0.7936836474699575
aI14
asS'0-7070-505'
p3223
(lp3224
F0.0739159672928845
aI122
asS'0-7070-504'
p3225
(lp3226
F0.22386731246117525
aI133
asS'0-7070-507'
p3227
(lp3228
F-0.05365782950783098
aI9
asS'0-7070-506'
p3229
(lp3230
F0.029798029076663058
aI29
asS'0-3090-503'
p3231
(lp3232
F0.25840988297111434
aI12
asS'0-3050204'
p3233
(lp3234
F-0.05516345909501631
aI371
asS'0-3050205'
p3235
(lp3236
F-0.06113213606730222
aI67
asS'00070-503'
p3237
(lp3238
F0.44078295116164534
aI34
asS'0-3070-203'
p3239
(lp3240
F0.1480465399330365
aI187
asS'0-7060-303'
p3241
(lp3242
F-0.06755183712785726
aI101
asS'0-7060-304'
p3243
(lp3244
F0.04450456040003625
aI160
asS'0-7060-305'
p3245
(lp3246
F-0.09894323489979
aI83
asS'0-3070-204'
p3247
(lp3248
F0.10901746663115124
aI61
asS'0-3070-205'
p3249
(lp3250
F-0.035070422490396984
aI3
asS'0-2060-704'
p3251
(lp3252
F0.6477448291032163
aI70
asS'0-7050404'
p3253
(lp3254
F-0.34950342269510537
aI10
asS'0-9080-407'
p3255
(lp3256
F0.05528139208005921
aI15
asS'0-9080-406'
p3257
(lp3258
F-0.026543526144635347
aI38
asS'0-9080-405'
p3259
(lp3260
F-0.05695726646750828
aI60
asS'0-9080-404'
p3261
(lp3262
F-0.06880549964514514
aI108
asS'0-9080-403'
p3263
(lp3264
F0.12164874162092838
aI7
asS'0-2090-704'
p3265
(lp3266
F-0.11621904497550772
aI1
asS'0-9080-408'
p3267
(lp3268
F0.04447123473052309
aI5
asS'0-6050-203'
p3269
(lp3270
F0.029851082135026973
aI110
asS'0-6050-206'
p3271
(lp3272
F-0.05877687428864975
aI3
asS'0-6050-205'
p3273
(lp3274
F-0.017509953149823218
aI72
asS'0-6050-204'
p3275
(lp3276
F-0.10395591476606056
aI116
asS'0-6050104'
p3277
(lp3278
F-0.3176529970996538
aI243
asS'0-6050105'
p3279
(lp3280
F0.10695102911861885
aI168
asS'0-6050106'
p3281
(lp3282
F-0.07780150699387922
aI43
asS'0-8060205'
p3283
(lp3284
F-0.8050338669349683
aI15
asS'0-6050103'
p3285
(lp3286
F-0.2822455642553228
aI150
asS'0-9080-609'
p3287
(lp3288
F0.05059766471222785
aI15
asS'0-3060204'
p3289
(lp3290
F0.0005988970830794122
aI96
asS'0-5060205'
p3291
(lp3292
F-0.02226899383333706
aI5
asS'0-5060204'
p3293
(lp3294
F-0.011294698933979608
aI43
asS'0-5060203'
p3295
(lp3296
F-0.06019077760749423
aI46
asS'0-5060-703'
p3297
(lp3298
F-0.05831786470938098
aI1
asS'0-7090-403'
p3299
(lp3300
F-0.0035109570432066417
aI2
asS'0-7090-404'
p3301
(lp3302
F0.1693555494122436
aI5
asS'0-7090-405'
p3303
(lp3304
F-4.285896258232266e-05
aI7
asS'0-8060-603'
p3305
(lp3306
F-0.060266782492863435
aI20
asS'0-8060-604'
p3307
(lp3308
F0.3044714471082699
aI113
asS'0-8060-605'
p3309
(lp3310
F-0.1968916167441579
aI140
asS'0-8060-606'
p3311
(lp3312
F-0.2727191767130546
aI97
asS'0-8060-607'
p3313
(lp3314
F-0.29269874438111176
aI31
asS'0-8060-608'
p3315
(lp3316
F-0.25497829242334646
aI12
asS'0-4060204'
p3317
(lp3318
F-0.03976747711829124
aI67
asS'0-4060205'
p3319
(lp3320
F-0.034106658967594516
aI6
asS'0-4060203'
p3321
(lp3322
F-0.0012025206039516928
aI81
asS'0-4050-103'
p3323
(lp3324
F-0.06934294459699211
aI225
asS'0-2050-304'
p3325
(lp3326
F0.03505276645753086
aI34
asS'0-2050-305'
p3327
(lp3328
F-0.08137188738867461
aI1
asS'0-2050-303'
p3329
(lp3330
F0.1776040908633873
aI94
asS'0-4050-104'
p3331
(lp3332
F0.014014418003698315
aI180
asS'0-4050-105'
p3333
(lp3334
F-0.040816915733980594
aI9
asS'0-4070104'
p3335
(lp3336
F-0.00603815961265633
aI2
asS'0-4070103'
p3337
(lp3338
F0.016612265414229103
aI11
asS'0-8050203'
p3339
(lp3340
F-0.19164772188049223
aI8
asS'0-8050205'
p3341
(lp3342
F0.009772259030616251
aI69
asS'0-8050204'
p3343
(lp3344
F-0.566046262897051
aI100
asS'0-8050206'
p3345
(lp3346
F0.0036351531137021817
aI18
asS'0-2080-103'
p3347
(lp3348
F0.01883299984814956
aI20
asS'0-8080-206'
p3349
(lp3350
F0.02785599128421557
aI21
asS'0-8080-204'
p3351
(lp3352
F-0.02723463176386714
aI33
asS'0-8080-205'
p3353
(lp3354
F0.016600027277061884
aI28
asS'0-8080-203'
p3355
(lp3356
F0.014484827253065309
aI8
asS'0-10070-506'
p3357
(lp3358
F-0.31552097780151256
aI320
asS'0-10070-507'
p3359
(lp3360
F-0.26748519039372276
aI361
asS'0-10070-504'
p3361
(lp3362
F-0.22864619364941735
aI134
asS'0-10070-505'
p3363
(lp3364
F-0.25179113924319574
aI282
asS'0-7050403'
p3365
(lp3366
F-0.01778267193805992
aI9
asS'0-10070-503'
p3367
(lp3368
F-0.3180350709346955
aI4
asS'0-10070-508'
p3369
(lp3370
F-0.37098493226005924
aI368
asS'0-10070-509'
p3371
(lp3372
F-0.40051634190194463
aI59
asS'0-6070-704'
p3373
(lp3374
F0.6057311544300382
aI453
asS'0-6070-705'
p3375
(lp3376
F0.36348625879242824
aI178
asS'0-6070-706'
p3377
(lp3378
F0.17717769485988125
aI86
asS'0-6070-707'
p3379
(lp3380
F0.0978505225401108
aI9
asS'0-6070-703'
p3381
(lp3382
F0.14979291246512313
aI1
asS'0-3080-303'
p3383
(lp3384
F0.14681237775031694
aI79
asS'0-3080-304'
p3385
(lp3386
F0.016607435563330934
aI19
asS'0-3080-305'
p3387
(lp3388
F-0.05731115593515146
aI3
asS'0-8050-506'
p3389
(lp3390
F-0.39564972431954415
aI20
asS'0-8050-507'
p3391
(lp3392
F-0.06015576148465973
aI1
asS'0-8050-504'
p3393
(lp3394
F-0.25969350159530313
aI43
asS'0-8050-505'
p3395
(lp3396
F-0.3822717278788281
aI34
asS'0-8050-508'
p3397
(lp3398
F-0.07190462613728894
aI1
asS'0-6060304'
p3399
(lp3400
F0.05289787912646132
aI2
asS'0-6060303'
p3401
(lp3402
F-0.09078223458441256
aI6
asS'0-10050-706'
p3403
(lp3404
F-0.11120808467655968
aI1
asS'0-10050-707'
p3405
(lp3406
F-0.11311568614812498
aI1
asS'0-10050-704'
p3407
(lp3408
F-0.09916808045355172
aI1
asS'0-10050-705'
p3409
(lp3410
F-0.11699852527428928
aI1
asS'0-6080-305'
p3411
(lp3412
F0.006898049707056382
aI18
asS'0-6080-304'
p3413
(lp3414
F-0.0019669795835254335
aI45
asS'0-10050-708'
p3415
(lp3416
F-0.10862651247511917
aI1
asS'0-6080-306'
p3417
(lp3418
F0.053939622786794685
aI4
asS'0-6080-303'
p3419
(lp3420
F0.10759569240141162
aI29
asS'0-10080-508'
p3421
(lp3422
F-0.2763691308992331
aI45
asS'0-10080-503'
p3423
(lp3424
F0.4854231692577505
aI5
asS'0-4080-203'
p3425
(lp3426
F0.0774192122010907
aI25
asS'0-10080-507'
p3427
(lp3428
F0.07158815179977736
aI114
asS'0-10080-506'
p3429
(lp3430
F0.033265204886823226
aI126
asS'0-10080-505'
p3431
(lp3432
F0.15113048505786195
aI112
asS'0-4080-205'
p3433
(lp3434
F-0.09388980847645162
aI4
asS'0-4070-504'
p3435
(lp3436
F0.14402261004008227
aI103
asS'0-4070-505'
p3437
(lp3438
F0.11583935414494069
aI13
asS'00070203'
p3439
(lp3440
F0.007342911119844572
aI18
asS'0-4070-503'
p3441
(lp3442
F0.2521799633360527
aI178
asS'00060-703'
p3443
(lp3444
F-0.029068327308385017
aI1
asS'01060303'
p3445
(lp3446
F0.02415340691510129
aI363
asS'0-7050-705'
p3447
(lp3448
F0.22887252639262312
aI33
asS'0-7050-704'
p3449
(lp3450
F0.9937899366552966
aI8
asS'0-7050-707'
p3451
(lp3452
F-0.0076830415162219
aI5
asS'0-7050-706'
p3453
(lp3454
F0.09198478729724668
aI39
asS'0-7050-703'
p3455
(lp3456
F0.1231842790287179
aI1
asS'0-1060403'
p3457
(lp3458
F-0.002503259485859886
aI12
asS'0-2060003'
p3459
(lp3460
F0.07200495311417277
aI439
asS'01060-603'
p3461
(lp3462
F-0.06146947928859031
aI2
asS'0-2060004'
p3463
(lp3464
F0.0868452670390647
aI95
asS'0-2060005'
p3465
(lp3466
F-0.07242945594195677
aI4
asS'0-7070-403'
p3467
(lp3468
F-0.006369788303535601
aI93
asS'0-7070-404'
p3469
(lp3470
F0.12065781536208461
aI121
asS'0-7070-405'
p3471
(lp3472
F0.045092671365922786
aI97
asS'0-7070-406'
p3473
(lp3474
F0.025973676370367346
aI46
asS'0-2070103'
p3475
(lp3476
F0.017245856771012563
aI38
asS'0-2070104'
p3477
(lp3478
F-0.04415927766179896
aI10
asS'0-9050205'
p3479
(lp3480
F-0.6218795233427463
aI37
asS'0-5050006'
p3481
(lp3482
F0.026584251890687718
aI3
asS'0-5050004'
p3483
(lp3484
F-0.03591141508706782
aI236
asS'0-5050005'
p3485
(lp3486
F-0.05040480380381656
aI130
asS'0-5050003'
p3487
(lp3488
F-0.05360413870392236
aI207
asS'0-9060203'
p3489
(lp3490
F0.06115522512919261
aI1
asS'0-2060-604'
p3491
(lp3492
F0.43653157837927625
aI22
asS'0-2060-605'
p3493
(lp3494
F0.0916890985703904
aI1
asS'0-2060-603'
p3495
(lp3496
F0.11799244398390729
aI106
asS'0-9080-508'
p3497
(lp3498
F-0.11478487466446431
aI17
asS'0-9060204'
p3499
(lp3500
F-0.3683410191527833
aI8
asS'0-9080-506'
p3501
(lp3502
F-0.10325074169231017
aI71
asS'0-9080-507'
p3503
(lp3504
F-0.0744325065016704
aI41
asS'0-9080-504'
p3505
(lp3506
F-0.07747028635471029
aI102
asS'0-9080-505'
p3507
(lp3508
F-0.1909815402863959
aI110
asS'0-9080-503'
p3509
(lp3510
F0.26487252174558473
aI9
asS'0-1070-305'
p3511
(lp3512
F0.062032745737914854
aI2
asS'0-1070-304'
p3513
(lp3514
F0.04440870586466704
aI7
asS'0-10050-105'
p3515
(lp3516
F0.0026564916700410057
aI1
asS'0-1070-303'
p3517
(lp3518
F0.3132294591724779
aI135
asS'0-6050-303'
p3519
(lp3520
F-0.07023144994804048
aI71
asS'0-6050-304'
p3521
(lp3522
F0.08276376779732637
aI116
asS'0-6050-305'
p3523
(lp3524
F-0.20781057089317623
aI47
asS'0-6050005'
p3525
(lp3526
F-0.06660622138381467
aI149
asS'0-6050004'
p3527
(lp3528
F-0.27295061884017463
aI235
asS'0-6050006'
p3529
(lp3530
F-0.32288567731742257
aI21
asS'0-6050003'
p3531
(lp3532
F-0.11376147010804333
aI128
asS'0-9050-608'
p3533
(lp3534
F-0.6314503436781556
aI5
asS'0-8090-704'
p3535
(lp3536
F0.781218443223265
aI545
asS'0-5050-105'
p3537
(lp3538
F-0.016426471705844888
aI66
asS'00060403'
p3539
(lp3540
F0.0038015123633382097
aI29
asS'0-8090-103'
p3541
(lp3542
F0.07944496184609243
aI4
asS'0-8060-508'
p3543
(lp3544
F-0.3755041343854296
aI17
asS'0-8090-104'
p3545
(lp3546
F0.05883816250177888
aI11
asS'00050-503'
p3547
(lp3548
F0.09879175523141456
aI7
asS'0-5060304'
p3549
(lp3550
F-0.013849377466117837
aI6
asS'0-5060303'
p3551
(lp3552
F-0.10572245770912533
aI13
asS'0-4050403'
p3553
(lp3554
F-0.16667715114318465
aI201
asS'0-5050-104'
p3555
(lp3556
F-0.05972661806885844
aI176
asS'0-5050-106'
p3557
(lp3558
F-0.07952901543370594
aI8
asS'0-5050-103'
p3559
(lp3560
F-0.012943552165064293
aI171
asS'0-4050404'
p3561
(lp3562
F-0.13751821120633081
aI112
asS'0-8060-503'
p3563
(lp3564
F0.3084409116209455
aI38
asS'0-8060-507'
p3565
(lp3566
F-0.009494855620464301
aI19
asS'0-8060-506'
p3567
(lp3568
F-0.29517518331149434
aI87
asS'0-8060-505'
p3569
(lp3570
F-0.1747320602069597
aI128
asS'0-8060-504'
p3571
(lp3572
F0.25443044081239263
aI118
as.