(dp0
S'01050403'
p1
(lp2
F-0.10529271385234398
aI2
asS'0-2050403'
p3
(lp4
F-0.011663531025031433
aI7
asS'0-2050303'
p5
(lp6
F0.05006730013401797
aI1
asS'0-1050403'
p7
(lp8
F-0.05878063028654185
aI6
asS'0-3050303'
p9
(lp10
F-0.02637482688672628
aI4
asS'0-10050-105'
p11
(lp12
F-0.14710824333580155
aI1
asS'00050503'
p13
(lp14
F0.032661879074247044
aI3
asS'0-1050503'
p15
(lp16
F0.03206352653417093
aI4
asS'0-3050304'
p17
(lp18
F0.09419164907706545
aI3
asS'0-5050204'
p19
(lp20
F-0.10803271595561922
aI1
asS'0-5050304'
p21
(lp22
F-0.06452813783492206
aI3
asS'0-9050004'
p23
(lp24
F-0.8105511862654349
aI4
asS'0-5050303'
p25
(lp26
F-0.008790482210295266
aI3
asS'0-10050005'
p27
(lp28
F0.11584301601753419
aI1
asS'0-10050004'
p29
(lp30
F-0.05950402954082462
aI1
asS'02050503'
p31
(lp32
F-0.07395850480723253
aI11
asS'0-4050304'
p33
(lp34
F-0.04751905846457155
aI3
asS'0-9050-105'
p35
(lp36
F-0.8104877733180724
aI2
asS'0-6050304'
p37
(lp38
F-0.01744935513306528
aI3
asS'0-4050303'
p39
(lp40
F0.004644053864744597
aI5
asS'0-8050104'
p41
(lp42
F-0.03264960023355057
aI5
asS'0-9050005'
p43
(lp44
F-0.03640684860170456
aI4
asS'0-7050204'
p45
(lp46
F-0.07136004543413374
aI2
asS'0-6050303'
p47
(lp48
F0.04568425247793781
aI2
asS'0-8050005'
p49
(lp50
F0.08646620532382678
aI7
asS'0-7050203'
p51
(lp52
F0.07627469067186296
aI1
asS'0-7050304'
p53
(lp54
F-0.022079646696615517
aI2
asS'0-6050203'
p55
(lp56
F-0.07787453778377929
aI2
asS'0-7050104'
p57
(lp58
F0.0990464141165235
aI3
asS'0-6050104'
p59
(lp60
F0.05995888191519609
aI5
asS'0-7050005'
p61
(lp62
F-0.0023199089300097904
aI6
asS'0-9050104'
p63
(lp64
F-0.025917923054926212
aI2
asS'00050403'
p65
(lp66
F-0.03498588850430416
aI5
asS'0-3050403'
p67
(lp68
F-0.019742380267677807
aI4
asS'0-7050105'
p69
(lp70
F-0.08069049002514879
aI2
asS'0-6050004'
p71
(lp72
F-0.14203141959089807
aI1
asS'0-6050204'
p73
(lp74
F-0.09723947515714906
aI1
asS'01050503'
p75
(lp76
F-0.08040027497510492
aI4
as.