(dp0
S'11000700'
p1
(lp2
F0.013653620900551201
aI27
asS'00010902'
p3
(lp4
F-0.019655662554006442
aI2
asS'00010903'
p5
(lp6
F0.020886948160231452
aI32
asS'04030600'
p7
(lp8
F-0.031249359515152793
aI7
asS'07020202'
p9
(lp10
F-0.09094900642910494
aI1
asS'07020201'
p11
(lp12
F0.4545184571207687
aI26
asS'07020200'
p13
(lp14
F0.36389169749850003
aI78
asS'00030502'
p15
(lp16
F0.08351305880440582
aI5
asS'09000600'
p17
(lp18
F0.03909510451310911
aI113
asS'07030101'
p19
(lp20
F0.2896941688556135
aI19
asS'07030100'
p21
(lp22
F0.10506533213485189
aI41
asS'09010501'
p23
(lp24
F-0.06079338337388169
aI4
asS'09010500'
p25
(lp26
F0.09095163111107651
aI123
asS'02020000'
p27
(lp28
F-0.07009853428419238
aI1
asS'02020001'
p29
(lp30
F0.41587200789364537
aI380
asS'02020002'
p31
(lp32
F0.0660464566284241
aI156
asS'02020003'
p33
(lp34
F0.19937545844799548
aI149
asS'02020004'
p35
(lp36
F-0.22020211830816483
aI90
asS'02020005'
p37
(lp38
F0.04244810049278051
aI10
asS'08030300'
p39
(lp40
F0.3858618604707202
aI32
asS'08030301'
p41
(lp42
F0.22413260487832498
aI5
asS'11000900'
p43
(lp44
F-0.0033112245517403632
aI249
asS'04010203'
p45
(lp46
F-0.013743549393901055
aI25
asS'04010202'
p47
(lp48
F0.5090390514025989
aI25
asS'04010201'
p49
(lp50
F0.04432009725529901
aI84
asS'04010200'
p51
(lp52
F0.8266331475191344
aI65
asS'01000604'
p53
(lp54
F0.4398874880153675
aI3
asS'01000603'
p55
(lp56
F-0.24990129340730527
aI29
asS'01000602'
p57
(lp58
F-0.31906526850015365
aI120
asS'01000601'
p59
(lp60
F-0.8319105944339228
aI96
asS'01000600'
p61
(lp62
F-0.5665781073123012
aI39
asS'08000800'
p63
(lp64
F0.03681772015719379
aI320
asS'08000801'
p65
(lp66
F-0.017499368747880772
aI18
asS'03010604'
p67
(lp68
F-0.028538751751793073
aI14
asS'03010600'
p69
(lp70
F-0.039803640102223634
aI61
asS'03010601'
p71
(lp72
F-0.08936378333696121
aI88
asS'03010602'
p73
(lp74
F-0.0439282331615472
aI72
asS'03010603'
p75
(lp76
F0.00486511771624317
aI10
asS'09020800'
p77
(lp78
F0.020388217417157677
aI42
asS'02010300'
p79
(lp80
F0.12704179578451816
aI29
asS'02010301'
p81
(lp82
F-0.06027479483588184
aI121
asS'02010302'
p83
(lp84
F-0.058214627624388726
aI96
asS'02010303'
p85
(lp86
F-0.15825082946712102
aI42
asS'02010304'
p87
(lp88
F-0.226789422008099
aI4
asS'02010305'
p89
(lp90
F0.10822206756794893
aI4
asS'08020400'
p91
(lp92
F0.08330410541212237
aI95
asS'08020401'
p93
(lp94
F-0.03426755193640996
aI3
asS'06001100'
p95
(lp96
F-0.09960564958755169
aI184
asS'06001101'
p97
(lp98
F0.006002059962129758
aI37
asS'00020103'
p99
(lp100
F-0.3109746446172764
aI257
asS'00020102'
p101
(lp102
F-0.4281598827590999
aI126
asS'00020101'
p103
(lp104
F-0.2647928239359781
aI104
asS'00020100'
p105
(lp106
F0.6675057885471796
aI14
asS'00020107'
p107
(lp108
F-0.511166688328993
aI28
asS'00020106'
p109
(lp110
F-0.0032193635886089422
aI61
asS'00020105'
p111
(lp112
F-0.521387436459743
aI164
asS'00020104'
p113
(lp114
F-0.507552118220154
aI157
asS'03020001'
p115
(lp116
F0.5218667185193363
aI289
asS'03020000'
p117
(lp118
F0.03081539136539274
aI1
asS'03020003'
p119
(lp120
F0.27885807443421884
aI105
asS'03020002'
p121
(lp122
F0.3782874599685048
aI151
asS'03020004'
p123
(lp124
F0.027717019080935223
aI43
asS'01010303'
p125
(lp126
F-0.21185762212728362
aI131
asS'01010302'
p127
(lp128
F-0.2071119184486036
aI127
asS'01010301'
p129
(lp130
F-0.14374104664370488
aI63
asS'01010300'
p131
(lp132
F0.23040212708595878
aI11
asS'01010306'
p133
(lp134
F-0.03318521228618724
aI3
asS'01010305'
p135
(lp136
F-0.1482999583083588
aI62
asS'01010304'
p137
(lp138
F-0.27804583200922983
aI110
asS'06020501'
p139
(lp140
F0.13162793589835126
aI40
asS'00010008'
p141
(lp142
F-0.8200477076830279
aI17
asS'05000900'
p143
(lp144
F-0.03266925007253487
aI214
asS'05000901'
p145
(lp146
F-0.0719779754039814
aI146
asS'05000902'
p147
(lp148
F-0.24260097539992254
aI34
asS'04010004'
p149
(lp150
F0.0586116874953839
aI24
asS'00010001'
p151
(lp152
F-0.7674153625745559
aI694
asS'00010000'
p153
(lp154
F-0.12101241005094127
aI1
asS'00010003'
p155
(lp156
F-0.6427663577636559
aI707
asS'00010002'
p157
(lp158
F-0.8044464804908842
aI678
asS'00010005'
p159
(lp160
F-0.8006693243022861
aI484
asS'00010004'
p161
(lp162
F-0.8058353376129483
aI693
asS'00010007'
p163
(lp164
F-0.8141043364895184
aI97
asS'00010006'
p165
(lp166
F-0.7890598499172674
aI401
asS'04000000'
p167
(lp168
F-0.032101946282647176
aI1
asS'04000001'
p169
(lp170
F0.42773284928406696
aI27
asS'04000002'
p171
(lp172
F0.13492816409639896
aI29
asS'04000003'
p173
(lp174
F0.10539323910893512
aI11
asS'03000601'
p175
(lp176
F-0.32235915519199565
aI116
asS'03000600'
p177
(lp178
F-0.3752387231581907
aI80
asS'03000603'
p179
(lp180
F-0.06261195196425803
aI20
asS'03000602'
p181
(lp182
F-0.09480369849660653
aI73
asS'10010800'
p183
(lp184
F0.1365333707654514
aI253
asS'10010801'
p185
(lp186
F0.029639800741370126
aI4
asS'08011100'
p187
(lp188
F0.006856247056636678
aI35
asS'06000501'
p189
(lp190
F0.04455178711849172
aI33
asS'06000500'
p191
(lp192
F-0.035915480873123726
aI97
asS'07000300'
p193
(lp194
F-0.058829975374189575
aI61
asS'07000301'
p195
(lp196
F0.079676982451809
aI16
asS'04020802'
p197
(lp198
F-0.008228839585956826
aI2
asS'04020800'
p199
(lp200
F-0.007747103933427698
aI5
asS'07001200'
p201
(lp202
F-0.045881653590243356
aI155
asS'06030601'
p203
(lp204
F0.07593513571348011
aI2
asS'06030600'
p205
(lp206
F0.013482548510857818
aI17
asS'07010400'
p207
(lp208
F0.013055918892371366
aI139
asS'07010401'
p209
(lp210
F0.07911451179529759
aI37
asS'05000001'
p211
(lp212
F0.3838651277408582
aI4
asS'05000000'
p213
(lp214
F-0.022089874706837265
aI1
asS'05000003'
p215
(lp216
F0.09660939630332184
aI6
asS'05000002'
p217
(lp218
F0.18851811502312693
aI12
asS'08010202'
p219
(lp220
F0.042950718294867005
aI5
asS'08010201'
p221
(lp222
F0.13136969940129234
aI9
asS'08010200'
p223
(lp224
F0.4664853230405751
aI72
asS'05020700'
p225
(lp226
F0.01406616730625818
aI3
asS'05020701'
p227
(lp228
F0.005818863677846124
aI27
asS'03000803'
p229
(lp230
F-0.013441736855486303
aI18
asS'03000802'
p231
(lp232
F-0.04252921104036425
aI86
asS'03000801'
p233
(lp234
F-0.1864804303540992
aI143
asS'03000800'
p235
(lp236
F-0.1529408002370785
aI109
asS'06010201'
p237
(lp238
F0.007541238414275206
aI49
asS'06010200'
p239
(lp240
F0.3885987307824373
aI100
asS'06010202'
p241
(lp242
F0.24411677881183502
aI14
asS'08000100'
p243
(lp244
F0.7102810815025022
aI8
asS'05030200'
p245
(lp246
F0.3613397243577532
aI14
asS'07001100'
p247
(lp248
F-0.10052632027110206
aI299
asS'07040100'
p249
(lp250
F-0.04929914097419141
aI2
asS'11000600'
p251
(lp252
F0.1341239216829802
aI16
asS'00040303'
p253
(lp254
F0.025359286519986327
aI2
asS'07020302'
p255
(lp256
F-0.0857170209338326
aI1
asS'07020300'
p257
(lp258
F0.2736235433881281
aI107
asS'07020301'
p259
(lp260
F0.051521234843333735
aI40
asS'08040300'
p261
(lp262
F-0.038499128798699864
aI3
asS'09000700'
p263
(lp264
F0.04269712330712305
aI170
asS'09000701'
p265
(lp266
F0.004588628148887899
aI2
asS'04040000'
p267
(lp268
F0.09384168573074811
aI1
asS'04040001'
p269
(lp270
F0.8386181200555871
aI8
asS'02010801'
p271
(lp272
F-0.051070667472775264
aI64
asS'05040001'
p273
(lp274
F0.8105515086304598
aI15
asS'05040000'
p275
(lp276
F0.04336655345354448
aI1
asS'02010800'
p277
(lp278
F-0.23263819132722446
aI18
asS'07030000'
p279
(lp280
F-0.019749175768361688
aI1
asS'07030001'
p281
(lp282
F0.10840757648226396
aI54
asS'11010500'
p283
(lp284
F0.023090628353834824
aI6
asS'09010400'
p285
(lp286
F0.2883965254215729
aI62
asS'09010401'
p287
(lp288
F-0.03753295929252924
aI3
asS'04010302'
p289
(lp290
F0.11675615521617222
aI42
asS'04010303'
p291
(lp292
F0.06816694673797069
aI14
asS'04010300'
p293
(lp294
F0.0014277929918604122
aI92
asS'04010301'
p295
(lp296
F0.15600951875511126
aI103
asS'01030002'
p297
(lp298
F0.5782367739819849
aI142
asS'01030003'
p299
(lp300
F0.27478159385198553
aI73
asS'01030000'
p301
(lp302
F-0.12116157479994139
aI1
asS'01030001'
p303
(lp304
F0.7976801143505161
aI230
asS'01030004'
p305
(lp306
F0.12615987076957588
aI69
asS'01030005'
p307
(lp308
F0.003861461087513937
aI11
asS'04010204'
p309
(lp310
F0.03355747794615971
aI1
asS'01000704'
p311
(lp312
F0.04758822573753925
aI4
asS'01000702'
p313
(lp314
F-0.11159415435656402
aI57
asS'01000703'
p315
(lp316
F-0.7447660325430947
aI61
asS'01000700'
p317
(lp318
F-0.30796571753633084
aI14
asS'01000701'
p319
(lp320
F-0.8102544613984024
aI90
asS'03010103'
p321
(lp322
F0.0497351981170678
aI56
asS'03010102'
p323
(lp324
F0.1911656149456121
aI88
asS'03010101'
p325
(lp326
F0.22718502927088116
aI98
asS'03010100'
p327
(lp328
F0.6803804689150019
aI33
asS'03010104'
p329
(lp330
F0.0015208710407965675
aI8
asS'10020600'
p331
(lp332
F0.052044351894056914
aI49
asS'11011100'
p333
(lp334
F0.007583647213567949
aI38
asS'09020900'
p335
(lp336
F0.0250149722033861
aI19
asS'08020701'
p337
(lp338
F0.1026559185473597
aI1
asS'08020700'
p339
(lp340
F0.024313426721088285
aI80
asS'00001001'
p341
(lp342
F-0.08710033564199969
aI1
asS'10020400'
p343
(lp344
F-0.0023140596182063414
aI33
asS'00020002'
p345
(lp346
F0.4808960482797707
aI553
asS'00020003'
p347
(lp348
F-0.5789602852102138
aI527
asS'00020000'
p349
(lp350
F0.12935918098634017
aI1
asS'00020001'
p351
(lp352
F0.6043730554858426
aI710
asS'00020006'
p353
(lp354
F-0.44676786406341945
aI150
asS'00020007'
p355
(lp356
F-0.5246688121159746
aI14
asS'00020004'
p357
(lp358
F0.1709938581607326
aI520
asS'00020005'
p359
(lp360
F0.05669990113385352
aI437
asS'05030102'
p361
(lp362
F-0.04588996874340548
aI5
asS'05030101'
p363
(lp364
F0.1481216037156588
aI22
asS'05030100'
p365
(lp366
F0.8017893911957328
aI7
asS'03020100'
p367
(lp368
F0.20742284050998533
aI26
asS'03020101'
p369
(lp370
F0.1299916831815323
aI119
asS'03020102'
p371
(lp372
F0.14743298017093995
aI83
asS'03020103'
p373
(lp374
F0.06249141890263971
aI60
asS'03020104'
p375
(lp376
F-0.046614662408952165
aI25
asS'10000200'
p377
(lp378
F0.049494762359320044
aI1
asS'06020400'
p379
(lp380
F0.04068001067900437
aI105
asS'06020401'
p381
(lp382
F0.1918423010228783
aI38
asS'00010100'
p383
(lp384
F0.589481532112092
aI6
asS'00010101'
p385
(lp386
F0.4419273402372106
aI50
asS'00010102'
p387
(lp388
F-0.5547883856099557
aI234
asS'00010103'
p389
(lp390
F-0.4059324275132792
aI401
asS'00010104'
p391
(lp392
F-0.8009680941893028
aI434
asS'00010105'
p393
(lp394
F-0.4889679627810716
aI427
asS'00010106'
p395
(lp396
F-0.8041210722500961
aI338
asS'00010107'
p397
(lp398
F-0.7997182563211059
aI156
asS'04000703'
p399
(lp400
F0.029977822791167404
aI13
asS'04000702'
p401
(lp402
F-0.04215370858956145
aI53
asS'04000701'
p403
(lp404
F-0.09354267454807907
aI159
asS'04000700'
p405
(lp406
F-0.1738671439628573
aI135
asS'03000700'
p407
(lp408
F-0.12436274932426156
aI95
asS'03000701'
p409
(lp410
F-0.1346051517563963
aI155
asS'03000702'
p411
(lp412
F-0.4125483000409238
aI89
asS'03000703'
p413
(lp414
F-0.13899840680321524
aI31
asS'06010300'
p415
(lp416
F0.27470969751495755
aI125
asS'06010301'
p417
(lp418
F0.08288073865030905
aI61
asS'06010302'
p419
(lp420
F0.14955040077861065
aI5
asS'08011000'
p421
(lp422
F-0.000850851511857275
aI88
asS'08011001'
p423
(lp424
F0.0050695511790412595
aI10
asS'06000400'
p425
(lp426
F0.23181969782022346
aI69
asS'06000401'
p427
(lp428
F0.036705004340192554
aI28
asS'07000401'
p429
(lp430
F0.007056007704132956
aI6
asS'07000400'
p431
(lp432
F0.0838192687302642
aI80
asS'01020404'
p433
(lp434
F-0.12796791123615336
aI32
asS'08020600'
p435
(lp436
F0.016578154038806032
aI121
asS'01020402'
p437
(lp438
F0.04367765576840109
aI74
asS'07010701'
p439
(lp440
F0.04255172455368795
aI31
asS'07010700'
p441
(lp442
F0.04359443802918311
aI247
asS'05000100'
p443
(lp444
F0.521059017606383
aI12
asS'05000101'
p445
(lp446
F-0.03163453015686342
aI1
asS'05000102'
p447
(lp448
F-0.08695428956262738
aI14
asS'04011200'
p449
(lp450
F-0.03208381315462219
aI2
asS'08010302'
p451
(lp452
F0.0941019258584774
aI2
asS'08010300'
p453
(lp454
F0.4209170017551238
aI102
asS'08010301'
p455
(lp456
F0.0312459656010492
aI7
asS'05010602'
p457
(lp458
F-0.030468284308768682
aI22
asS'05010603'
p459
(lp460
F-0.13746356373385082
aI1
asS'05010600'
p461
(lp462
F-0.008379888787327913
aI168
asS'05010601'
p463
(lp464
F0.0961065863312487
aI103
asS'08000000'
p465
(lp466
F0.1429172921986527
aI1
asS'09010301'
p467
(lp468
F-0.0346292167127861
aI1
asS'09010300'
p469
(lp470
F0.07534868618990272
aI54
asS'07040200'
p471
(lp472
F-0.04290326629471557
aI3
asS'00040204'
p473
(lp474
F0.10348915849465885
aI7
asS'00040203'
p475
(lp476
F-0.056074187318819704
aI8
asS'09030500'
p477
(lp478
F0.06434595198090497
aI43
asS'10020900'
p479
(lp480
F0.06972641940680006
aI16
asS'01030403'
p481
(lp482
F-0.08095979724370264
aI4
asS'09000401'
p483
(lp484
F0.03600900874710994
aI3
asS'09000400'
p485
(lp486
F0.2366613366887627
aI46
asS'05040100'
p487
(lp488
F0.7830395531450244
aI3
asS'11010600'
p489
(lp490
F0.08342862578895323
aI19
asS'11011000'
p491
(lp492
F0.01720398579698479
aI135
asS'02040204'
p493
(lp494
F-0.07874102501891975
aI4
asS'02040205'
p495
(lp496
F-0.06498618430789468
aI3
asS'02040200'
p497
(lp498
F-0.03778554065688436
aI7
asS'02020800'
p499
(lp500
F-0.012643141096932486
aI1
asS'02020801'
p501
(lp502
F0.03818906164294569
aI1
asS'02020802'
p503
(lp504
F0.0249296244048715
aI3
asS'03020801'
p505
(lp506
F0.02505826154728881
aI6
asS'03020800'
p507
(lp508
F-0.013962455672655472
aI3
asS'03020802'
p509
(lp510
F0.0029167384757027744
aI5
asS'04010001'
p511
(lp512
F0.402698112754234
aI218
asS'04010000'
p513
(lp514
F0.07163462395588663
aI1
asS'04010003'
p515
(lp516
F-0.08075434724123658
aI39
asS'04010002'
p517
(lp518
F0.20828766152216915
aI129
asS'10000900'
p519
(lp520
F0.0025286143659756927
aI402
asS'01030301'
p521
(lp522
F-0.020049047207500444
aI15
asS'01030303'
p523
(lp524
F0.017352290153809607
aI37
asS'01030302'
p525
(lp526
F-0.09059503480298213
aI10
asS'01030304'
p527
(lp528
F-0.021307078590002484
aI14
asS'05011001'
p529
(lp530
F0.02314966625233621
aI9
asS'05011000'
p531
(lp532
F-0.017293753226651533
aI47
asS'03030700'
p533
(lp534
F-0.10086458449238885
aI2
asS'12001100'
p535
(lp536
F0.0001189771878431149
aI1089
asS'10020700'
p537
(lp538
F0.20344900678573896
aI50
asS'05030002'
p539
(lp540
F0.06835605485818774
aI18
asS'05030000'
p541
(lp542
F-0.1448917779743426
aI1
asS'05030001'
p543
(lp544
F0.8077274212911927
aI120
asS'01020405'
p545
(lp546
F0.03342018701112846
aI19
asS'06040100'
p547
(lp548
F0.7896156106855418
aI4
asS'01020403'
p549
(lp550
F-0.09866113367883628
aI41
asS'08020601'
p551
(lp552
F0.08183664453828096
aI9
asS'01020401'
p553
(lp554
F-0.05268628414005169
aI89
asS'01020400'
p555
(lp556
F0.10368160916835259
aI13
asS'04001002'
p557
(lp558
F-0.02653372573000671
aI42
asS'04001001'
p559
(lp560
F-0.0941374685805543
aI101
asS'04001000'
p561
(lp562
F-0.2850571265066995
aI81
asS'03000003'
p563
(lp564
F0.1480429188909252
aI14
asS'03000002'
p565
(lp566
F0.33599184575572644
aI48
asS'03000001'
p567
(lp568
F0.30615511953675467
aI69
asS'03000000'
p569
(lp570
F-0.11784169398271238
aI1
asS'03000004'
p571
(lp572
F-0.04535876745719726
aI22
asS'07010201'
p573
(lp574
F0.3929962212674993
aI24
asS'10021000'
p575
(lp576
F0.007626270723568938
aI3
asS'00020301'
p577
(lp578
F-0.2547268266177149
aI39
asS'00020300'
p579
(lp580
F0.31548013502307354
aI16
asS'00020303'
p581
(lp582
F-0.10644267710453617
aI135
asS'00020302'
p583
(lp584
F-0.17506871565555712
aI103
asS'00020305'
p585
(lp586
F-0.5326491981679093
aI116
asS'00020304'
p587
(lp588
F-0.1434406362501553
aI141
asS'10000300'
p589
(lp590
F0.3644851878284711
aI5
asS'03010902'
p591
(lp592
F-0.049752734185804434
aI16
asS'03010901'
p593
(lp594
F-0.03276770089419225
aI14
asS'03010900'
p595
(lp596
F-0.11264298945278076
aI16
asS'04000602'
p597
(lp598
F-0.053042474525162475
aI49
asS'04000603'
p599
(lp600
F-0.15912263338292879
aI6
asS'04000600'
p601
(lp602
F-0.0617829268556276
aI113
asS'04000601'
p603
(lp604
F-0.26176085049638376
aI91
asS'06010402'
p605
(lp606
F-0.08111181452176884
aI2
asS'06010401'
p607
(lp608
F0.04673997118541057
aI54
asS'06010400'
p609
(lp610
F-0.03132852335327586
aI163
asS'06000701'
p611
(lp612
F-0.00786847455399983
aI101
asS'06000700'
p613
(lp614
F0.0001666476948430154
aI208
asS'06000702'
p615
(lp616
F-0.006383747800018227
aI4
asS'07000500'
p617
(lp618
F0.08198792061089978
aI94
asS'07000501'
p619
(lp620
F-0.0050414870444239574
aI13
asS'06010700'
p621
(lp622
F0.05942465167449669
aI168
asS'09020100'
p623
(lp624
F0.4609976731972431
aI30
asS'09020101'
p625
(lp626
F-0.047488528719006634
aI2
asS'11001200'
p627
(lp628
F-0.010716532878436196
aI1600
asS'07010600'
p629
(lp630
F0.03189828733356529
aI202
asS'05000602'
p631
(lp632
F-0.0337245706091997
aI19
asS'05000601'
p633
(lp634
F-0.015608643815008497
aI87
asS'05000600'
p635
(lp636
F0.1086813669266443
aI113
asS'08010000'
p637
(lp638
F-0.08574565793541053
aI1
asS'08010002'
p639
(lp640
F0.004263393995018124
aI3
asS'08030401'
p641
(lp642
F-0.01157747436254826
aI5
asS'08030400'
p643
(lp644
F0.2602089809504434
aI43
asS'02000701'
p645
(lp646
F-0.30344632599821814
aI126
asS'02000700'
p647
(lp648
F-0.5580584800102328
aI54
asS'02000703'
p649
(lp650
F-0.10201882213666555
aI54
asS'02000702'
p651
(lp652
F-0.15047723139006064
aI88
asS'03000502'
p653
(lp654
F-0.05528133659447539
aI27
asS'03000503'
p655
(lp656
F-0.11675153394830179
aI10
asS'03000500'
p657
(lp658
F0.031054595486477127
aI63
asS'01020504'
p659
(lp660
F-0.015916964186171223
aI31
asS'05010501'
p661
(lp662
F0.04359315474390062
aI90
asS'05010500'
p663
(lp664
F0.035146656447088344
aI149
asS'05010503'
p665
(lp666
F0.015277557185850912
aI6
asS'03000501'
p667
(lp668
F-0.08214203409462076
aI95
asS'11010700'
p669
(lp670
F0.06244525860498939
aI58
asS'09010200'
p671
(lp672
F0.25681441432749685
aI41
asS'05010104'
p673
(lp674
F0.04544581908214354
aI1
asS'07040300'
p675
(lp676
F0.08728186905184432
aI3
asS'02010405'
p677
(lp678
F-0.04676056267574899
aI14
asS'02010404'
p679
(lp680
F-0.0007840455743467617
aI3
asS'02010403'
p681
(lp682
F0.025706237994975165
aI18
asS'02010402'
p683
(lp684
F-0.09085048742743329
aI88
asS'02010401'
p685
(lp686
F-0.009779794093320651
aI109
asS'02010400'
p687
(lp688
F-0.18702733986169762
aI55
asS'09030400'
p689
(lp690
F0.21150510390467986
aI20
asS'02000903'
p691
(lp692
F0.0570552953074806
aI13
asS'02000902'
p693
(lp694
F-0.12735937499455313
aI45
asS'02000901'
p695
(lp696
F-0.5169504781271945
aI72
asS'02000900'
p697
(lp698
F-0.10705716919202365
aI12
asS'10010301'
p699
(lp700
F-0.12207539877973331
aI1
asS'00030002'
p701
(lp702
F0.5423360765044125
aI319
asS'00030001'
p703
(lp704
F0.790373187410713
aI430
asS'00030000'
p705
(lp706
F-0.0828628319687897
aI1
asS'00030005'
p707
(lp708
F-0.33352746944685246
aI54
asS'00030004'
p709
(lp710
F0.2165259586262981
aI124
asS'09000500'
p711
(lp712
F0.11285085684497694
aI79
asS'09000501'
p713
(lp714
F-0.06582355262608502
aI1
asS'09001101'
p715
(lp716
F-0.009752715805605909
aI44
asS'09001100'
p717
(lp718
F0.004358532337495761
aI891
asS'03020901'
p719
(lp720
F0.05862727365821091
aI5
asS'04010100'
p721
(lp722
F0.5576200596221587
aI42
asS'04010101'
p723
(lp724
F0.44217171069115846
aI92
asS'04010102'
p725
(lp726
F0.05911821630576545
aI56
asS'04010103'
p727
(lp728
F0.08409811196015582
aI24
asS'01030201'
p729
(lp730
F0.1901107493584661
aI13
asS'01030202'
p731
(lp732
F0.04700296512750998
aI37
asS'01030203'
p733
(lp734
F-0.0513088241062053
aI32
asS'01030204'
p735
(lp736
F-0.07915007383831066
aI15
asS'05020003'
p737
(lp738
F0.014133117966537295
aI2
asS'05020002'
p739
(lp740
F0.5788294727578147
aI72
asS'05020001'
p741
(lp742
F0.8171630941265283
aI211
asS'05020000'
p743
(lp744
F0.04372663941014382
aI1
asS'03030601'
p745
(lp746
F-0.0049438608720269684
aI11
asS'12001000'
p747
(lp748
F0.002367852124759229
aI319
asS'05030301'
p749
(lp750
F0.26210426622377303
aI6
asS'05030300'
p751
(lp752
F0.15053414308769722
aI14
asS'08020101'
p753
(lp754
F0.795786356868817
aI11
asS'08020100'
p755
(lp756
F0.8447052735994087
aI41
asS'01020502'
p757
(lp758
F0.02888584799112376
aI68
asS'01020503'
p759
(lp760
F-0.030781204521662265
aI111
asS'01020500'
p761
(lp762
F0.0013179706522059575
aI4
asS'01020501'
p763
(lp764
F0.04004473192208264
aI50
asS'04010801'
p765
(lp766
F-0.0013647499840056896
aI60
asS'04010800'
p767
(lp768
F-0.04974723643994053
aI49
asS'04010803'
p769
(lp770
F0.037189802709443553
aI1
asS'04010802'
p771
(lp772
F-0.024971456255822963
aI41
asS'04001100'
p773
(lp774
F-0.06486527999372095
aI44
asS'04001101'
p775
(lp776
F-0.09158217620081278
aI20
asS'04000501'
p777
(lp778
F-0.0074457808401582545
aI57
asS'04000500'
p779
(lp780
F-0.08200791034420989
aI82
asS'04000502'
p781
(lp782
F0.008359591902772752
aI28
asS'03000102'
p783
(lp784
F0.2744991089641886
aI11
asS'03000103'
p785
(lp786
F-0.10880919304794706
aI18
asS'03000101'
p787
(lp788
F-0.09801150621113575
aI30
asS'04030003'
p789
(lp790
F0.349521442713771
aI26
asS'04030002'
p791
(lp792
F0.5640431054864617
aI63
asS'04030001'
p793
(lp794
F0.47739505913274355
aI125
asS'04030000'
p795
(lp796
F0.11491741428461746
aI1
asS'04020304'
p797
(lp798
F0.0723466489117586
aI14
asS'04020301'
p799
(lp800
F0.04652814198703015
aI64
asS'04020300'
p801
(lp802
F0.20622041163609134
aI36
asS'04020302'
p803
(lp804
F0.16797539091059965
aI37
asS'00020200'
p805
(lp806
F0.3856841215631911
aI9
asS'00020201'
p807
(lp808
F-0.2930395600044396
aI41
asS'00020202'
p809
(lp810
F-0.19111841923506578
aI106
asS'00020203'
p811
(lp812
F-0.21466222108643862
aI128
asS'00020204'
p813
(lp814
F-0.27083976076733873
aI147
asS'00020205'
p815
(lp816
F-0.40969442671754136
aI171
asS'00020206'
p817
(lp818
F0.02254787689737472
aI51
asS'10010100'
p819
(lp820
F0.11853717571690062
aI1
asS'05010801'
p821
(lp822
F-0.11499483364471623
aI88
asS'06020500'
p823
(lp824
F0.015768885176062633
aI104
asS'06000600'
p825
(lp826
F0.003971711669187165
aI131
asS'06000601'
p827
(lp828
F0.04579417475480341
aI51
asS'06000602'
p829
(lp830
F-0.01844908822261765
aI1
asS'07000601'
p831
(lp832
F0.0001335425807930911
aI14
asS'07000600'
p833
(lp834
F0.0011477878026072313
aI135
asS'05000903'
p835
(lp836
F0.04141476166118188
aI4
asS'09020201'
p837
(lp838
F0.0673780205310581
aI4
asS'09020200'
p839
(lp840
F0.44594792293872515
aI50
asS'05000702'
p841
(lp842
F-0.020839413749535532
aI26
asS'05000703'
p843
(lp844
F-0.10484836919634971
aI1
asS'05000700'
p845
(lp846
F-0.17510080292701263
aI163
asS'05000701'
p847
(lp848
F-0.18406799914590116
aI134
asS'07010901'
p849
(lp850
F-0.020879885538591242
aI40
asS'07010900'
p851
(lp852
F-0.0076001093763155775
aI142
asS'08010100'
p853
(lp854
F0.8219924348322029
aI49
asS'08010101'
p855
(lp856
F-0.10276798071899026
aI1
asS'08010102'
p857
(lp858
F-0.036767566353575684
aI7
asS'08030500'
p859
(lp860
F0.18705127386729659
aI38
asS'08030501'
p861
(lp862
F-0.02999084782238482
aI6
asS'02000600'
p863
(lp864
F-0.8478563069694987
aI65
asS'02000601'
p865
(lp866
F-0.08283665042966003
aI89
asS'02000602'
p867
(lp868
F-0.20683592885231564
aI103
asS'02000603'
p869
(lp870
F-0.03014876221440467
aI26
asS'05010400'
p871
(lp872
F0.13081355357066993
aI149
asS'05010401'
p873
(lp874
F0.10580675257037282
aI106
asS'05010402'
p875
(lp876
F0.010410880669203147
aI8
asS'05010403'
p877
(lp878
F0.038036694072429884
aI3
asS'02030302'
p879
(lp880
F0.007288643155337545
aI22
asS'02030303'
p881
(lp882
F-0.10529011984757052
aI4
asS'02030300'
p883
(lp884
F0.021092226412408016
aI4
asS'02030301'
p885
(lp886
F-0.020082304719600128
aI15
asS'09010100'
p887
(lp888
F0.7791521020564329
aI25
asS'01040004'
p889
(lp890
F0.027955301164092547
aI10
asS'02010504'
p891
(lp892
F0.044164290292165495
aI7
asS'02010502'
p893
(lp894
F-0.06970351523899293
aI90
asS'02010503'
p895
(lp896
F-0.020162795167542723
aI25
asS'01040003'
p897
(lp898
F0.2624790730782063
aI32
asS'02010501'
p899
(lp900
F-0.06004026790984451
aI99
asS'06020301'
p901
(lp902
F0.09283072345368916
aI33
asS'06020300'
p903
(lp904
F0.3608481310040709
aI109
asS'07020801'
p905
(lp906
F-0.03860750991277716
aI3
asS'07020800'
p907
(lp908
F-0.07545304787737253
aI16
asS'10010200'
p909
(lp910
F0.45620333777584327
aI5
asS'00000504'
p911
(lp912
F0.023915184936933898
aI1
asS'00000501'
p913
(lp914
F0.11074748178066093
aI1
asS'00000500'
p915
(lp916
F-0.05522742120747243
aI1
asS'00000503'
p917
(lp918
F0.13865012565731408
aI1
asS'00000502'
p919
(lp920
F-0.10564867997170904
aI1
asS'09000200'
p921
(lp922
F0.07288825131864632
aI11
asS'09001000'
p923
(lp924
F0.0073599621954732975
aI883
asS'09001001'
p925
(lp926
F-0.005995945119811795
aI60
asS'04010603'
p927
(lp928
F-0.02776828773910576
aI4
asS'04010602'
p929
(lp930
F-0.03435550596058478
aI50
asS'04010601'
p931
(lp932
F-0.014008704797393353
aI99
asS'04010600'
p933
(lp934
F-0.015345449676095278
aI95
asS'02020602'
p935
(lp936
F-0.03412414135173366
aI15
asS'02020603'
p937
(lp938
F0.05009664422295298
aI22
asS'02020600'
p939
(lp940
F0.014596802503372586
aI10
asS'02020601'
p941
(lp942
F-0.009402245131194864
aI9
asS'03020603'
p943
(lp944
F0.022464758299387617
aI6
asS'03020602'
p945
(lp946
F0.0004628890350486317
aI21
asS'03020601'
p947
(lp948
F0.016148925743478787
aI34
asS'03020600'
p949
(lp950
F0.049769986440753713
aI15
asS'07010601'
p951
(lp952
F0.11754450715714387
aI46
asS'07010602'
p953
(lp954
F0.13927346017687856
aI1
asS'05020102'
p955
(lp956
F0.003702541354678013
aI11
asS'05011200'
p957
(lp958
F-0.053605699997345775
aI3
asS'05020100'
p959
(lp960
F0.8084644947503403
aI30
asS'05020101'
p961
(lp962
F0.5971613377144422
aI62
asS'08001002'
p963
(lp964
F0.06375746919302176
aI7
asS'08001001'
p965
(lp966
F0.0025289573433570933
aI79
asS'08001000'
p967
(lp968
F-0.024460696481824636
aI596
asS'03030500'
p969
(lp970
F-0.012772667579190905
aI2
asS'03030502'
p971
(lp972
F0.09155549475182198
aI4
asS'07001101'
p973
(lp974
F-0.0005750589595738586
aI69
asS'05030201'
p975
(lp976
F0.09866971781354017
aI18
asS'01010901'
p977
(lp978
F0.07485469764583383
aI4
asS'06040300'
p979
(lp980
F0.027341150576119258
aI9
asS'01010903'
p981
(lp982
F-0.07421103492512024
aI14
asS'01010902'
p983
(lp984
F-0.02097031468172229
aI5
asS'04010900'
p985
(lp986
F-0.011164950049831064
aI20
asS'04010901'
p987
(lp988
F-0.015228111848156083
aI41
asS'04010902'
p989
(lp990
F0.007244529076529421
aI15
asS'04000400'
p991
(lp992
F-0.11579507930976854
aI49
asS'04000401'
p993
(lp994
F0.0380109338343642
aI40
asS'04000402'
p995
(lp996
F-0.09860062592417076
aI35
asS'04000403'
p997
(lp998
F0.059175595825862445
aI2
asS'03000201'
p999
(lp1000
F0.013033908679740582
aI32
asS'03000200'
p1001
(lp1002
F0.18249222122798794
aI7
asS'03000202'
p1003
(lp1004
F0.015587161894165064
aI8
asS'10011000'
p1005
(lp1006
F-0.0015747362457243935
aI163
asS'04030102'
p1007
(lp1008
F0.006214151447624878
aI9
asS'04030100'
p1009
(lp1010
F0.5681955897059681
aI5
asS'04030101'
p1011
(lp1012
F0.8062520959488516
aI17
asS'06011200'
p1013
(lp1014
F-0.042146585302209306
aI5
asS'04020204'
p1015
(lp1016
F-0.0837896653312335
aI4
asS'04020200'
p1017
(lp1018
F0.43359280061457584
aI40
asS'04020201'
p1019
(lp1020
F0.05466293748489032
aI95
asS'04020202'
p1021
(lp1022
F0.24295995322200958
aI28
asS'04020203'
p1023
(lp1024
F0.002124866103354965
aI9
asS'08020900'
p1025
(lp1026
F-0.03490038979171321
aI7
asS'11000800'
p1027
(lp1028
F0.02365463381419605
aI109
asS'00010605'
p1029
(lp1030
F0.0020985630145336524
aI54
asS'00010604'
p1031
(lp1032
F-0.16210181779211788
aI153
asS'00010603'
p1033
(lp1034
F-0.24612033866322897
aI242
asS'00010602'
p1035
(lp1036
F-0.14539809635520906
aI311
asS'00010601'
p1037
(lp1038
F-0.10543361933446962
aI107
asS'00010600'
p1039
(lp1040
F-0.2370535233775146
aI3
asS'07000700'
p1041
(lp1042
F0.030883834733466523
aI204
asS'07000701'
p1043
(lp1044
F0.03915912567019254
aI30
asS'09020300'
p1045
(lp1046
F0.3269176097457249
aI59
asS'05010502'
p1047
(lp1048
F0.017771046299687468
aI12
asS'05000401'
p1049
(lp1050
F0.04507330749615779
aI28
asS'05000400'
p1051
(lp1052
F0.1404748336447056
aI78
asS'05000402'
p1053
(lp1054
F0.03172318298110488
aI8
asS'07010800'
p1055
(lp1056
F-0.034206747515118624
aI232
asS'07010801'
p1057
(lp1058
F0.054278137620732796
aI55
asS'08010801'
p1059
(lp1060
F0.03317638037657923
aI35
asS'08010800'
p1061
(lp1062
F-0.0115421289651789
aI301
asS'02000103'
p1063
(lp1064
F0.029898610194595603
aI13
asS'02000102'
p1065
(lp1066
F0.16933711436166943
aI14
asS'02000101'
p1067
(lp1068
F0.058739746300818574
aI17
asS'02000104'
p1069
(lp1070
F0.0957899499504242
aI1
asS'05020801'
p1071
(lp1072
F-0.03631379305455518
aI1
asS'05020800'
p1073
(lp1074
F0.0550170714615839
aI5
asS'02010603'
p1075
(lp1076
F-0.018939162947525963
aI29
asS'02010602'
p1077
(lp1078
F-0.16845559508527838
aI92
asS'02030001'
p1079
(lp1080
F0.7821845381972388
aI278
asS'02030000'
p1081
(lp1082
F-0.14436545123342914
aI1
asS'02030003'
p1083
(lp1084
F0.3100720723642852
aI60
asS'02030002'
p1085
(lp1086
F0.597068535188907
aI61
asS'02030005'
p1087
(lp1088
F0.016749450311688993
aI6
asS'02030004'
p1089
(lp1090
F0.0006054111857985746
aI31
asS'08000701'
p1091
(lp1092
F-0.00043271316101036253
aI6
asS'08000700'
p1093
(lp1094
F0.0016038722833970345
aI212
asS'03010002'
p1095
(lp1096
F0.23290255550121447
aI141
asS'03010003'
p1097
(lp1098
F0.2272371395579262
aI82
asS'03010000'
p1099
(lp1100
F0.08403044794891754
aI1
asS'03010001'
p1101
(lp1102
F0.8298222897857797
aI225
asS'03010004'
p1103
(lp1104
F0.12356480349963525
aI27
asS'09010000'
p1105
(lp1106
F-0.1441945871090952
aI1
asS'09010001'
p1107
(lp1108
F0.7830261986681775
aI4
asS'01010202'
p1109
(lp1110
F-0.20326917568959257
aI115
asS'01010203'
p1111
(lp1112
F-0.1938964685357402
aI137
asS'01010200'
p1113
(lp1114
F0.1775882477838321
aI25
asS'01010201'
p1115
(lp1116
F-0.21958264324323087
aI44
asS'01010206'
p1117
(lp1118
F-0.18358931653897423
aI13
asS'01010204'
p1119
(lp1120
F-0.17994084512220881
aI71
asS'01010205'
p1121
(lp1122
F-0.37876906591272663
aI74
asS'02010604'
p1123
(lp1124
F0.08483830505391488
aI5
asS'02010601'
p1125
(lp1126
F-0.3439429692945715
aI116
asS'02010600'
p1127
(lp1128
F-0.10071935633167586
aI31
asS'01040102'
p1129
(lp1130
F-0.005722014874908105
aI9
asS'01040103'
p1131
(lp1132
F0.10757073219576854
aI1
asS'02011001'
p1133
(lp1134
F-0.02572638139765851
aI3
asS'10000401'
p1135
(lp1136
F0.02406878024127173
aI3
asS'10000400'
p1137
(lp1138
F-0.1064325298865336
aI3
asS'06020200'
p1139
(lp1140
F0.2466154710099569
aI84
asS'06020201'
p1141
(lp1142
F0.3922036409124706
aI50
asS'03000902'
p1143
(lp1144
F-0.36356480644562883
aI53
asS'03000903'
p1145
(lp1146
F-0.06843310782879353
aI6
asS'03000900'
p1147
(lp1148
F-0.23099009353032138
aI76
asS'03000901'
p1149
(lp1150
F-0.12552955886979736
aI118
asS'07020900'
p1151
(lp1152
F-0.023359308667414296
aI14
asS'00000404'
p1153
(lp1154
F-0.11782057130698263
aI1
asS'00000405'
p1155
(lp1156
F0.06842046502183668
aI1
asS'00000406'
p1157
(lp1158
F0.10749275136312794
aI1
asS'00000407'
p1159
(lp1160
F-0.14469133707596663
aI1
asS'00000400'
p1161
(lp1162
F0.036932458719060784
aI1
asS'00000401'
p1163
(lp1164
F0.05932649760452596
aI1
asS'00000402'
p1165
(lp1166
F0.01778609992854588
aI1
asS'00000403'
p1167
(lp1168
F0.027286304216698865
aI1
asS'12001200'
p1169
(lp1170
F-0.010371389344926644
aI5561
asS'03020702'
p1171
(lp1172
F-0.01243242514776602
aI32
asS'03020700'
p1173
(lp1174
F0.0411685094097622
aI8
asS'03020701'
p1175
(lp1176
F0.0237879001640423
aI8
asS'10001200'
p1177
(lp1178
F0.0005029975171959196
aI767
asS'07020001'
p1179
(lp1180
F0.8200346416661167
aI45
asS'07020000'
p1181
(lp1182
F0.06734980708953234
aI1
asS'07020002'
p1183
(lp1184
F0.28817818802204165
aI9
asS'03030400'
p1185
(lp1186
F-0.0054092617132710605
aI2
asS'03030401'
p1187
(lp1188
F-0.006574574223326572
aI3
asS'03030402'
p1189
(lp1190
F0.0609595140500413
aI8
asS'04020502'
p1191
(lp1192
F-0.006098696888506649
aI25
asS'04020501'
p1193
(lp1194
F0.04135072587133574
aI60
asS'04020500'
p1195
(lp1196
F0.18964560351927354
aI48
asS'05030501'
p1197
(lp1198
F0.11383330212400868
aI5
asS'05030500'
p1199
(lp1200
F-0.021063813756469763
aI10
asS'07001000'
p1201
(lp1202
F-0.0284638818767819
aI477
asS'07001001'
p1203
(lp1204
F-0.026439328988884195
aI114
asS'07001002'
p1205
(lp1206
F-0.02226213237828875
aI9
asS'06040200'
p1207
(lp1208
F-0.03607607771164109
aI1
asS'01010801'
p1209
(lp1210
F-0.026351842027126968
aI19
asS'01010802'
p1211
(lp1212
F-0.06463253505565403
aI8
asS'01010803'
p1213
(lp1214
F-0.3739948702524738
aI21
asS'01010804'
p1215
(lp1216
F0.04411447496642863
aI6
asS'03000300'
p1217
(lp1218
F0.11427223215164287
aI14
asS'03000301'
p1219
(lp1220
F-0.16181836495865176
aI40
asS'03000302'
p1221
(lp1222
F-0.1031571069314311
aI11
asS'03000303'
p1223
(lp1224
F0.066159788585451
aI2
asS'03000304'
p1225
(lp1226
F-0.13583495391552244
aI1
asS'10011100'
p1227
(lp1228
F-0.0001694664204593601
aI45
asS'01010501'
p1229
(lp1230
F0.06329202918146984
aI101
asS'04030201'
p1231
(lp1232
F0.392166253017051
aI12
asS'04030200'
p1233
(lp1234
F0.4174930706203305
aI10
asS'04030202'
p1235
(lp1236
F0.07543205842620546
aI8
asS'04050001'
p1237
(lp1238
F0.787745411642959
aI4
asS'04050000'
p1239
(lp1240
F-0.06387593846586455
aI1
asS'06011100'
p1241
(lp1242
F-0.0012574409864512933
aI14
asS'09010901'
p1243
(lp1244
F-0.04192648597115081
aI3
asS'09010900'
p1245
(lp1246
F-0.006513084035822196
aI250
asS'08020800'
p1247
(lp1248
F0.057879851010075825
aI49
asS'08020801'
p1249
(lp1250
F0.09219912153451079
aI1
asS'00010704'
p1251
(lp1252
F0.614556332529033
aI45
asS'00010705'
p1253
(lp1254
F-0.7912357421440487
aI21
asS'00010702'
p1255
(lp1256
F-0.04266429243522416
aI141
asS'00010703'
p1257
(lp1258
F0.6294823136683807
aI237
asS'00010701'
p1259
(lp1260
F-0.3307303482176787
aI88
asS'01030503'
p1261
(lp1262
F0.02082718501276358
aI7
asS'01030501'
p1263
(lp1264
F0.05615158993305066
aI15
asS'01000405'
p1265
(lp1266
F-0.7773719644164246
aI3
asS'01000401'
p1267
(lp1268
F-0.5871246892531276
aI27
asS'01000400'
p1269
(lp1270
F-0.2141208707830582
aI10
asS'01000403'
p1271
(lp1272
F-0.30336703176462165
aI11
asS'01000402'
p1273
(lp1274
F-0.05214047016191038
aI54
asS'11010800'
p1275
(lp1276
F0.06657457636427208
aI107
asS'05000500'
p1277
(lp1278
F-0.053271850324053335
aI108
asS'05000501'
p1279
(lp1280
F-0.04123058827996546
aI45
asS'05000502'
p1281
(lp1282
F0.0064742379976935275
aI11
asS'02010700'
p1283
(lp1284
F-0.30995829913356726
aI33
asS'02010701'
p1285
(lp1286
F-0.09339291603499494
aI61
asS'02010702'
p1287
(lp1288
F-0.00514201238298361
aI83
asS'02010703'
p1289
(lp1290
F-0.12783497879105205
aI18
asS'07010102'
p1291
(lp1292
F0.18519943865945776
aI4
asS'07010101'
p1293
(lp1294
F0.28306973821295645
aI11
asS'07010100'
p1295
(lp1296
F0.8056783922610875
aI66
asS'08010900'
p1297
(lp1298
F-0.019619752216215015
aI196
asS'08010901'
p1299
(lp1300
F0.02616555470685414
aI30
asS'02000002'
p1301
(lp1302
F0.2856050344545656
aI45
asS'02000003'
p1303
(lp1304
F-0.2683450472773322
aI29
asS'02000001'
p1305
(lp1306
F0.6332039325510966
aI45
asS'02000004'
p1307
(lp1308
F-0.35824770215369706
aI30
asS'02000005'
p1309
(lp1310
F-0.03274499968110305
aI8
asS'02030100'
p1311
(lp1312
F0.6369168494244707
aI6
asS'02030101'
p1313
(lp1314
F0.5715311412283526
aI45
asS'02030102'
p1315
(lp1316
F0.13156283080844883
aI37
asS'02030103'
p1317
(lp1318
F-0.02991195445581766
aI24
asS'02030104'
p1319
(lp1320
F0.07800577528205589
aI10
asS'08000600'
p1321
(lp1322
F0.04052042221568364
aI141
asS'08000601'
p1323
(lp1324
F-0.009275267708904314
aI7
asS'03010301'
p1325
(lp1326
F0.0463249143893346
aI96
asS'03010300'
p1327
(lp1328
F0.3294445119063152
aI63
asS'03010303'
p1329
(lp1330
F-0.004855703279738416
aI10
asS'03010302'
p1331
(lp1332
F-0.20366970635185558
aI42
asS'07011200'
p1333
(lp1334
F0.0028598168404225886
aI8
asS'06030401'
p1335
(lp1336
F-0.0020978172819183516
aI3
asS'06030400'
p1337
(lp1338
F0.04598214902905144
aI22
asS'01010101'
p1339
(lp1340
F0.47590456773633005
aI112
asS'01010100'
p1341
(lp1342
F0.5541939899741546
aI7
asS'01010103'
p1343
(lp1344
F-0.272013675799865
aI123
asS'01010102'
p1345
(lp1346
F-0.3512804564010577
aI117
asS'01010105'
p1347
(lp1348
F-0.06846723535519349
aI97
asS'01010104'
p1349
(lp1350
F-0.3384786695360224
aI76
asS'01010106'
p1351
(lp1352
F-0.3802408803210747
aI24
asS'10000500'
p1353
(lp1354
F-0.06023252409667213
aI7
asS'00000303'
p1355
(lp1356
F0.13004871165376672
aI1
asS'00000302'
p1357
(lp1358
F-0.06632313224005425
aI1
asS'00000301'
p1359
(lp1360
F-0.04252778784837316
aI1
asS'00000307'
p1361
(lp1362
F0.11003253088419537
aI1
asS'00000306'
p1363
(lp1364
F-0.03414394956410784
aI1
asS'00000305'
p1365
(lp1366
F0.10675423365045769
aI1
asS'00000304'
p1367
(lp1368
F-0.07544076696850499
aI1
asS'06000101'
p1369
(lp1370
F-0.08261903992268874
aI3
asS'06000100'
p1371
(lp1372
F0.27639804710213445
aI3
asS'01001002'
p1373
(lp1374
F0.051390481593828835
aI2
asS'01001000'
p1375
(lp1376
F-0.7881041197996715
aI3
asS'01001001'
p1377
(lp1378
F-0.8152661537445378
aI7
asS'00040105'
p1379
(lp1380
F-0.053181797503436185
aI8
asS'00040104'
p1381
(lp1382
F-0.01898720669724805
aI44
asS'00040101'
p1383
(lp1384
F0.005892046848867891
aI4
asS'00040100'
p1385
(lp1386
F-0.04174575329206476
aI1
asS'00040103'
p1387
(lp1388
F0.054734150869206744
aI5
asS'00040102'
p1389
(lp1390
F-0.13772269029513545
aI6
asS'10001101'
p1391
(lp1392
F-0.04664753761500935
aI7
asS'10001100'
p1393
(lp1394
F-0.006656652645030108
aI1264
asS'07020100'
p1395
(lp1396
F0.44483049518383283
aI70
asS'07020101'
p1397
(lp1398
F0.5252652738606491
aI27
asS'07020102'
p1399
(lp1400
F-0.11634540781439992
aI4
asS'03030303'
p1401
(lp1402
F-0.06518932400631611
aI3
asS'03030302'
p1403
(lp1404
F0.1344217774391931
aI6
asS'03030301'
p1405
(lp1406
F-0.060051316202235305
aI13
asS'03030300'
p1407
(lp1408
F0.05257466648188909
aI18
asS'03030304'
p1409
(lp1410
F0.08247231815119364
aI6
asS'04050100'
p1411
(lp1412
F-0.0680798311142165
aI4
asS'04050101'
p1413
(lp1414
F-0.044815268126135975
aI4
asS'06011000'
p1415
(lp1416
F-0.002010583851873439
aI53
asS'06011001'
p1417
(lp1418
F-0.021742210025751975
aI8
asS'04020402'
p1419
(lp1420
F0.01711764056989494
aI30
asS'04020403'
p1421
(lp1422
F0.007091177023188301
aI19
asS'04020400'
p1423
(lp1424
F0.137604740346352
aI45
asS'04020401'
p1425
(lp1426
F0.008634512918764804
aI77
asS'07030600'
p1427
(lp1428
F-0.006608294899324824
aI7
asS'07030601'
p1429
(lp1430
F0.03549595308902549
aI2
asS'04030300'
p1431
(lp1432
F-0.002855302980998526
aI14
asS'04030301'
p1433
(lp1434
F-0.02388710548025861
aI18
asS'04030302'
p1435
(lp1436
F0.14095564590755286
aI9
asS'00020505'
p1437
(lp1438
F-0.1901827330071258
aI11
asS'00020504'
p1439
(lp1440
F-0.0141804310210457
aI45
asS'00020503'
p1441
(lp1442
F-0.07036259804824022
aI90
asS'00020502'
p1443
(lp1444
F-0.0169208255863326
aI98
asS'00020501'
p1445
(lp1446
F-0.09666154646312962
aI61
asS'09010800'
p1447
(lp1448
F0.03224900386064655
aI256
asS'09010801'
p1449
(lp1450
F-0.027247916148959665
aI3
asS'00010405'
p1451
(lp1452
F0.05921201551268368
aI304
asS'00010404'
p1453
(lp1454
F-0.8216822241353893
aI326
asS'00010407'
p1455
(lp1456
F-0.832765560304964
aI25
asS'00010406'
p1457
(lp1458
F-0.7883923733017446
aI79
asS'00010401'
p1459
(lp1460
F-0.7818753528989835
aI131
asS'00010400'
p1461
(lp1462
F-0.20460324382986209
aI43
asS'00010403'
p1463
(lp1464
F-0.06363740715044293
aI406
asS'00010402'
p1465
(lp1466
F-0.1434554243442362
aI357
asS'01030404'
p1467
(lp1468
F-0.016220897478348012
aI1
asS'01030402'
p1469
(lp1470
F0.06645940927218541
aI6
asS'02020701'
p1471
(lp1472
F0.006578131821953414
aI7
asS'01030401'
p1473
(lp1474
F-0.005491330024808838
aI5
asS'01000504'
p1475
(lp1476
F-0.2259731540723461
aI2
asS'01000500'
p1477
(lp1478
F-0.91740279002013
aI27
asS'01000501'
p1479
(lp1480
F-0.7947737923617515
aI53
asS'01000502'
p1481
(lp1482
F-0.7999838246998952
aI79
asS'01000503'
p1483
(lp1484
F-0.054468302940146096
aI33
asS'11010900'
p1485
(lp1486
F0.06731364161133543
aI133
asS'01010000'
p1487
(lp1488
F-0.09541686510959828
aI1
asS'01010001'
p1489
(lp1490
F0.5410949505590854
aI365
asS'01010002'
p1491
(lp1492
F0.2607237292194841
aI267
asS'01010003'
p1493
(lp1494
F-0.6140012567066033
aI122
asS'01010004'
p1495
(lp1496
F-0.4533584445994239
aI119
asS'01010005'
p1497
(lp1498
F-0.534884952645584
aI39
asS'01010006'
p1499
(lp1500
F-0.5070408098499832
aI16
asS'02010003'
p1501
(lp1502
F0.13997072008039163
aI62
asS'02010002'
p1503
(lp1504
F0.20245336551820098
aI143
asS'02010001'
p1505
(lp1506
F0.45215540149525646
aI263
asS'02010000'
p1507
(lp1508
F0.1332612884413605
aI1
asS'02010005'
p1509
(lp1510
F-0.17180814658371282
aI24
asS'02010004'
p1511
(lp1512
F-0.3708667214287489
aI64
asS'07010002'
p1513
(lp1514
F0.12045071723769385
aI5
asS'07010000'
p1515
(lp1516
F0.035243726602513625
aI1
asS'07010001'
p1517
(lp1518
F0.2012409079237698
aI35
asS'02000301'
p1519
(lp1520
F-0.16660792040265257
aI34
asS'02000300'
p1521
(lp1522
F-0.11229319282202621
aI8
asS'02000303'
p1523
(lp1524
F-0.0069672156335509605
aI1
asS'02000302'
p1525
(lp1526
F-0.29633014281926123
aI39
asS'08010601'
p1527
(lp1528
F0.05278807189147075
aI15
asS'08010600'
p1529
(lp1530
F0.0983502741549576
aI203
asS'06001200'
p1531
(lp1532
F-0.03595032227168441
aI81
asS'05010303'
p1533
(lp1534
F0.024701105183716276
aI12
asS'05010302'
p1535
(lp1536
F0.013888819642704268
aI15
asS'05010301'
p1537
(lp1538
F0.1040186183698606
aI105
asS'05010300'
p1539
(lp1540
F0.31538393457668973
aI114
asS'00030003'
p1541
(lp1542
F0.3767465136910457
aI313
asS'00000505'
p1543
(lp1544
F-0.04598604445665726
aI1
asS'08000501'
p1545
(lp1546
F0.029399764321885506
aI7
asS'08000500'
p1547
(lp1548
F0.036644103286629856
aI105
asS'03010200'
p1549
(lp1550
F-0.002449648663864046
aI49
asS'03010201'
p1551
(lp1552
F0.7913015941639169
aI65
asS'03010202'
p1553
(lp1554
F0.05039209135795959
aI89
asS'03010203'
p1555
(lp1556
F0.028066290537998258
aI30
asS'06030500'
p1557
(lp1558
F-0.01124821979864686
aI15
asS'06030501'
p1559
(lp1560
F0.04383542986556067
aI8
asS'08020200'
p1561
(lp1562
F0.5978080270494163
aI52
asS'08020201'
p1563
(lp1564
F0.37524770247058037
aI4
asS'06010502'
p1565
(lp1566
F-0.012834769155724218
aI7
asS'01010800'
p1567
(lp1568
F-0.09740124197604136
aI18
asS'06010500'
p1569
(lp1570
F0.005909532312567023
aI166
asS'06010501'
p1571
(lp1572
F0.06766026955107685
aI66
asS'04000303'
p1573
(lp1574
F0.03793998281231696
aI3
asS'04000302'
p1575
(lp1576
F-0.0947649129940852
aI17
asS'04000301'
p1577
(lp1578
F0.009846656481603341
aI54
asS'04000300'
p1579
(lp1580
F0.0073777953924197
aI10
asS'00000202'
p1581
(lp1582
F0.029120163727704984
aI1
asS'00000203'
p1583
(lp1584
F-0.005466974328749541
aI1
asS'00000200'
p1585
(lp1586
F-0.12098549367842307
aI1
asS'00000206'
p1587
(lp1588
F0.038195503993094876
aI1
asS'00000207'
p1589
(lp1590
F-0.1379462995721498
aI1
asS'00000204'
p1591
(lp1592
F0.02598177403360205
aI1
asS'00000205'
p1593
(lp1594
F-0.009347498579067026
aI1
asS'05011100'
p1595
(lp1596
F0.016819957864401387
aI4
asS'10010500'
p1597
(lp1598
F0.19875847159094506
aI34
asS'02010900'
p1599
(lp1600
F-0.022848592472321433
aI2
asS'06000001'
p1601
(lp1602
F0.8027744472402437
aI8
asS'02040005'
p1603
(lp1604
F-0.056978622674883295
aI7
asS'00040004'
p1605
(lp1606
F-0.029229968125890245
aI26
asS'00040000'
p1607
(lp1608
F-0.06617597293546347
aI1
asS'00040001'
p1609
(lp1610
F0.8089343496736479
aI186
asS'00040002'
p1611
(lp1612
F-0.1497478861902889
aI107
asS'00040003'
p1613
(lp1614
F0.12156100959000074
aI43
asS'10001000'
p1615
(lp1616
F-0.011761785399173734
aI879
asS'10001001'
p1617
(lp1618
F0.013955932543728344
aI3
asS'09030700'
p1619
(lp1620
F-0.0010758844103463915
aI2
asS'05050300'
p1621
(lp1622
F0.04537507349309046
aI5
asS'07020601'
p1623
(lp1624
F0.023794876102168024
aI22
asS'07020600'
p1625
(lp1626
F0.008739711572098397
aI95
asS'00030102'
p1627
(lp1628
F-0.17421868614091274
aI50
asS'00030103'
p1629
(lp1630
F-0.16677708604573566
aI123
asS'00030100'
p1631
(lp1632
F0.5150994472505588
aI2
asS'00030101'
p1633
(lp1634
F-0.14324173691794306
aI22
asS'00030106'
p1635
(lp1636
F-0.3604901948539345
aI10
asS'00030107'
p1637
(lp1638
F-0.03414174753483692
aI8
asS'00030104'
p1639
(lp1640
F0.09540903471835284
aI66
asS'00030105'
p1641
(lp1642
F-0.3482856465786954
aI13
asS'04020701'
p1643
(lp1644
F0.013429531888308293
aI11
asS'04020700'
p1645
(lp1646
F0.014950874429642899
aI13
asS'04020702'
p1647
(lp1648
F0.03701531232154065
aI7
asS'03011001'
p1649
(lp1650
F-0.04220422356126976
aI5
asS'07030501'
p1651
(lp1652
F0.04694048996909106
aI1
asS'07030500'
p1653
(lp1654
F0.1964584507003053
aI21
asS'09010701'
p1655
(lp1656
F0.061704340095371304
aI5
asS'09010700'
p1657
(lp1658
F0.010627794926369883
aI237
asS'11000500'
p1659
(lp1660
F-0.035266965107143354
aI2
asS'05001101'
p1661
(lp1662
F-0.11367575382600403
aI24
asS'05001100'
p1663
(lp1664
F-0.04768477347800237
aI89
asS'02000802'
p1665
(lp1666
F-0.09888117502828245
aI97
asS'02000803'
p1667
(lp1668
F-0.07501526012559764
aI32
asS'02000800'
p1669
(lp1670
F-0.32158091999260885
aI59
asS'02000801'
p1671
(lp1672
F-0.5431913829049251
aI105
asS'02000804'
p1673
(lp1674
F-0.02334955705829278
aI1
asS'04030402'
p1675
(lp1676
F0.03126452726068761
aI9
asS'04030401'
p1677
(lp1678
F-0.03868080660555488
aI8
asS'04030400'
p1679
(lp1680
F0.0026905001505211357
aI8
asS'01000203'
p1681
(lp1682
F0.09762623149019084
aI23
asS'01000202'
p1683
(lp1684
F-0.3473732545579249
aI15
asS'01000201'
p1685
(lp1686
F0.022493725989480504
aI2
asS'01000200'
p1687
(lp1688
F-0.8109100361536605
aI7
asS'01000207'
p1689
(lp1690
F-0.2307373070327928
aI2
asS'01000205'
p1691
(lp1692
F-0.43349704709536696
aI3
asS'01000204'
p1693
(lp1694
F-0.6103994492717184
aI9
asS'10020500'
p1695
(lp1696
F0.13667369868789392
aI44
asS'00020406'
p1697
(lp1698
F-0.0845080364280281
aI1
asS'00020404'
p1699
(lp1700
F-0.13312332288792367
aI100
asS'00020405'
p1701
(lp1702
F-0.5136517463679907
aI30
asS'00020402'
p1703
(lp1704
F-0.12030452591360699
aI81
asS'00020403'
p1705
(lp1706
F-0.16180123398651403
aI137
asS'00020401'
p1707
(lp1708
F-0.18356299363768577
aI28
asS'01020604'
p1709
(lp1710
F-0.06064330426462787
aI5
asS'08020000'
p1711
(lp1712
F0.08849404016339699
aI1
asS'08020001'
p1713
(lp1714
F0.8137053752069944
aI13
asS'01020601'
p1715
(lp1716
F-0.0677704007665579
aI22
asS'01020603'
p1717
(lp1718
F-0.08041842964693208
aI13
asS'01020602'
p1719
(lp1720
F-0.013613247811725643
aI76
asS'03010802'
p1721
(lp1722
F-0.0014997115508347107
aI32
asS'00010504'
p1723
(lp1724
F-0.3421648584488092
aI289
asS'00010505'
p1725
(lp1726
F-0.8173840301761498
aI112
asS'00010506'
p1727
(lp1728
F-0.012299862191751354
aI5
asS'00010500'
p1729
(lp1730
F-0.11695486743457936
aI12
asS'04001200'
p1731
(lp1732
F-0.04746771881305187
aI20
asS'00010502'
p1733
(lp1734
F-0.2502551957585357
aI367
asS'00010503'
p1735
(lp1736
F-0.21478111262828234
aI545
asS'06020900'
p1737
(lp1738
F0.04068176819000267
aI5
asS'03010803'
p1739
(lp1740
F0.033797848550968956
aI5
asS'09000801'
p1741
(lp1742
F0.040470890072463975
aI3
asS'09000800'
p1743
(lp1744
F0.00224287978570371
aI283
asS'06040000'
p1745
(lp1746
F-0.039882550507174194
aI1
asS'06040001'
p1747
(lp1748
F0.10990218357872095
aI14
asS'07000001'
p1749
(lp1750
F0.5254169667059012
aI5
asS'07000000'
p1751
(lp1752
F0.11509922920207696
aI1
asS'06000903'
p1753
(lp1754
F0.07898056627770916
aI4
asS'06000902'
p1755
(lp1756
F-0.002619759719575708
aI15
asS'06000901'
p1757
(lp1758
F-0.020951835097476005
aI143
asS'06000900'
p1759
(lp1760
F-0.02219225242812981
aI336
asS'09020401'
p1761
(lp1762
F0.1481092584483654
aI1
asS'09020400'
p1763
(lp1764
F0.3008067264977996
aI66
asS'04010702'
p1765
(lp1766
F0.01857553665939756
aI39
asS'04010703'
p1767
(lp1768
F0.07565263655611307
aI2
asS'04010700'
p1769
(lp1770
F-0.025313853436554432
aI82
asS'04010701'
p1771
(lp1772
F0.03106579263713655
aI93
asS'02020501'
p1773
(lp1774
F0.01805853922699532
aI36
asS'02020500'
p1775
(lp1776
F0.0694981896551943
aI14
asS'02020503'
p1777
(lp1778
F0.012031900735968205
aI20
asS'02020502'
p1779
(lp1780
F-0.06463827199050909
aI49
asS'07010301'
p1781
(lp1782
F0.024182441637049922
aI26
asS'07010300'
p1783
(lp1784
F0.13169541128073192
aI101
asS'02000201'
p1785
(lp1786
F0.2647439062783742
aI10
asS'02000202'
p1787
(lp1788
F-0.1593919799471802
aI21
asS'02000203'
p1789
(lp1790
F0.03390990628784116
aI7
asS'08010700'
p1791
(lp1792
F0.005494304521322723
aI284
asS'08010701'
p1793
(lp1794
F0.045675920362429207
aI22
asS'05000201'
p1795
(lp1796
F0.09504698097154102
aI13
asS'00000101'
p1797
(lp1798
F0.04656103252555094
aI1
asS'00000103'
p1799
(lp1800
F-0.029695838864820537
aI1
asS'00000102'
p1801
(lp1802
F-0.008285343917410176
aI1
asS'00000105'
p1803
(lp1804
F0.10957647961795489
aI1
asS'03000402'
p1805
(lp1806
F-0.3611943751425995
aI25
asS'03000401'
p1807
(lp1808
F-0.3793940163518383
aI61
asS'00000106'
p1809
(lp1810
F-0.02684371812210881
aI1
asS'08001100'
p1811
(lp1812
F-0.005588495914676728
aI607
asS'08001101'
p1813
(lp1814
F-0.00627004187266365
aI69
asS'05010202'
p1815
(lp1816
F0.22576849074140296
aI12
asS'05010200'
p1817
(lp1818
F0.5704319286316231
aI67
asS'05010201'
p1819
(lp1820
F0.18737609400060026
aI77
asS'08000400'
p1821
(lp1822
F0.23020582210195148
aI74
asS'08000401'
p1823
(lp1824
F0.060806794686297724
aI3
asS'07011001'
p1825
(lp1826
F0.005083625989815915
aI12
asS'07011000'
p1827
(lp1828
F0.0020777031484741073
aI89
asS'11001000'
p1829
(lp1830
F0.003969830011529913
aI567
asS'00010501'
p1831
(lp1832
F-0.37217250506490757
aI150
asS'08030600'
p1833
(lp1834
F0.02682823104940931
aI19
asS'06010601'
p1835
(lp1836
F0.07564015769217852
aI79
asS'06010600'
p1837
(lp1838
F0.03990398288006292
aI200
asS'06010602'
p1839
(lp1840
F0.0045182891816868305
aI13
asS'04000202'
p1841
(lp1842
F-0.00020201219619334944
aI8
asS'04000200'
p1843
(lp1844
F0.6074063845703049
aI14
asS'04000201'
p1845
(lp1846
F0.09437594782707932
aI24
asS'03001200'
p1847
(lp1848
F-0.05019478207020202
aI5
asS'10010400'
p1849
(lp1850
F0.2650892730814946
aI26
asS'10010401'
p1851
(lp1852
F-0.0037453335967701645
aI3
asS'12000800'
p1853
(lp1854
F0.005760878261205308
aI49
asS'09030600'
p1855
(lp1856
F0.21308789114643178
aI26
asS'07020700'
p1857
(lp1858
F0.01849693777712623
aI32
asS'07020701'
p1859
(lp1860
F0.07016251578409136
aI7
asS'03000404'
p1861
(lp1862
F-0.0390779136966875
aI10
asS'00030201'
p1863
(lp1864
F-0.1292547461548815
aI16
asS'00030203'
p1865
(lp1866
F-0.19205570605562594
aI75
asS'00030202'
p1867
(lp1868
F-0.16663995377455654
aI37
asS'00030204'
p1869
(lp1870
F0.03937249540962175
aI34
asS'00030206'
p1871
(lp1872
F-0.013648142499903933
aI5
asS'04020600'
p1873
(lp1874
F-0.0494961000354897
aI15
asS'04020601'
p1875
(lp1876
F0.009089558294353463
aI21
asS'04020602'
p1877
(lp1878
F-0.013444646865721915
aI24
asS'09000300'
p1879
(lp1880
F0.2844376033508986
aI17
asS'07030400'
p1881
(lp1882
F0.2660635639810915
aI24
asS'07030401'
p1883
(lp1884
F-0.0019348990419221922
aI5
asS'00050001'
p1885
(lp1886
F0.823683044521724
aI17
asS'00050000'
p1887
(lp1888
F0.006894108974383029
aI1
asS'00050003'
p1889
(lp1890
F-0.018971569104211067
aI28
asS'00050002'
p1891
(lp1892
F-0.07977504042831819
aI46
asS'02020303'
p1893
(lp1894
F-0.0865736444296512
aI48
asS'02020302'
p1895
(lp1896
F-0.03584420543932274
aI73
asS'02020301'
p1897
(lp1898
F-0.021962322084783575
aI54
asS'09010600'
p1899
(lp1900
F0.0398582158886598
aI185
asS'09010601'
p1901
(lp1902
F0.02159289688622957
aI5
asS'04010503'
p1903
(lp1904
F0.02847878623022803
aI2
asS'05001002'
p1905
(lp1906
F-0.035486751203139336
aI41
asS'05001000'
p1907
(lp1908
F-0.08027923104084933
aI187
asS'05001001'
p1909
(lp1910
F-0.08496354827218375
aI125
asS'05020201'
p1911
(lp1912
F0.09832005899241714
aI63
asS'05020200'
p1913
(lp1914
F0.8046228484050973
aI77
asS'05020202'
p1915
(lp1916
F-0.0046424462327250005
aI2
asS'01000302'
p1917
(lp1918
F0.09306907191982546
aI24
asS'01000303'
p1919
(lp1920
F-0.2929348743922556
aI4
asS'01000301'
p1921
(lp1922
F-0.30573508737795685
aI8
asS'01000306'
p1923
(lp1924
F-0.2608810977777237
aI7
asS'01000304'
p1925
(lp1926
F-0.28157544894394404
aI2
asS'10020200'
p1927
(lp1928
F0.5415791348356509
aI8
asS'02030601'
p1929
(lp1930
F0.028112573927011192
aI1
asS'08020301'
p1931
(lp1932
F0.04716183416122601
aI9
asS'08020300'
p1933
(lp1934
F0.3915047103868421
aI73
asS'01011001'
p1935
(lp1936
F0.00717433177844078
aI3
asS'01020701'
p1937
(lp1938
F0.06892753880467792
aI1
asS'01020702'
p1939
(lp1940
F-0.0413703881421473
aI16
asS'01020703'
p1941
(lp1942
F0.09357207110571922
aI19
asS'02010803'
p1943
(lp1944
F-0.1646464539343449
aI12
asS'02010802'
p1945
(lp1946
F-0.07816047090307271
aI25
asS'02040105'
p1947
(lp1948
F-0.05603238006254464
aI8
asS'02040104'
p1949
(lp1950
F-0.031822286976336434
aI4
asS'02040103'
p1951
(lp1952
F0.05177035341380244
aI6
asS'02040101'
p1953
(lp1954
F0.10426477426561534
aI1
asS'02040100'
p1955
(lp1956
F-0.0413151610243932
aI2
asS'03010800'
p1957
(lp1958
F-0.04167545841949015
aI33
asS'03010801'
p1959
(lp1960
F-0.023761524693789726
aI43
asS'00010203'
p1961
(lp1962
F-0.1502901048889393
aI397
asS'00010202'
p1963
(lp1964
F-0.8084880919391174
aI187
asS'00010201'
p1965
(lp1966
F-0.5768715858589996
aI37
asS'00010207'
p1967
(lp1968
F-0.8272787539467549
aI17
asS'00010206'
p1969
(lp1970
F-0.8180544659919343
aI178
asS'00010205'
p1971
(lp1972
F-0.5303904586053496
aI449
asS'00010204'
p1973
(lp1974
F-0.47417527139283816
aI391
asS'06020800'
p1975
(lp1976
F-0.005245009669922272
aI13
asS'06020801'
p1977
(lp1978
F0.01980688399107236
aI1
asS'09000900'
p1979
(lp1980
F0.014542124914402748
aI557
asS'09000901'
p1981
(lp1982
F0.05661933331965911
aI20
asS'07000100'
p1983
(lp1984
F0.5131215015958265
aI8
asS'07000101'
p1985
(lp1986
F0.04298515763159498
aI4
asS'06000802'
p1987
(lp1988
F-0.004401686311134617
aI8
asS'06000803'
p1989
(lp1990
F0.02043257083674643
aI3
asS'06000800'
p1991
(lp1992
F-0.12485538542157718
aI333
asS'06000801'
p1993
(lp1994
F-0.02604380859888806
aI130
asS'09020500'
p1995
(lp1996
F0.1797165625041552
aI76
asS'04010401'
p1997
(lp1998
F0.04673768908174118
aI104
asS'04010400'
p1999
(lp2000
F0.010280640661923867
aI97
asS'04010402'
p2001
(lp2002
F0.027877358880397426
aI51
asS'02020400'
p2003
(lp2004
F0.09802192737166814
aI29
asS'02020401'
p2005
(lp2006
F-0.003010431025512723
aI60
asS'02020402'
p2007
(lp2008
F-0.023753828010978216
aI78
asS'02020403'
p2009
(lp2010
F0.020758666148336963
aI25
asS'07010200'
p2011
(lp2012
F0.14847574570115335
aI64
asS'05000202'
p2013
(lp2014
F0.07280831317594412
aI10
asS'07010202'
p2015
(lp2016
F-0.06392283735411487
aI1
asS'05000200'
p2017
(lp2018
F0.09924256876520449
aI17
asS'04011100'
p2019
(lp2020
F-0.07236396255149807
aI2
asS'00000008'
p2021
(lp2022
F-0.11058847372595146
aI1
asS'06010701'
p2023
(lp2024
F0.07815402196484753
aI74
asS'06010702'
p2025
(lp2026
F0.01348566115795064
aI6
asS'00000001'
p2027
(lp2028
F0.0719462534517786
aI1
asS'00000002'
p2029
(lp2030
F-0.025892570148783517
aI1
asS'00000003'
p2031
(lp2032
F-0.09097164434090521
aI1
asS'00000004'
p2033
(lp2034
F0.041661760975410606
aI1
asS'00000005'
p2035
(lp2036
F-0.07723501605948253
aI1
asS'00000006'
p2037
(lp2038
F0.124186110677618
aI1
asS'00000007'
p2039
(lp2040
F-0.13260251417195307
aI1
asS'08001200'
p2041
(lp2042
F-0.007564945434534336
aI299
asS'05010101'
p2043
(lp2044
F0.2727703935908111
aI70
asS'05010100'
p2045
(lp2046
F0.6364408204774943
aI60
asS'05010103'
p2047
(lp2048
F0.06111098944054856
aI4
asS'05010102'
p2049
(lp2050
F0.31464296383393275
aI13
asS'08000300'
p2051
(lp2052
F0.04257388024678678
aI28
asS'10010300'
p2053
(lp2054
F0.2665746020850301
aI15
asS'07011100'
p2055
(lp2056
F-0.018223016331758067
aI57
asS'11001100'
p2057
(lp2058
F-0.007986069499218186
aI1602
asS'02020504'
p2059
(lp2060
F0.10137103748783274
aI1
asS'08030700'
p2061
(lp2062
F0.011955403358238133
aI6
asS'07020401'
p2063
(lp2064
F0.14153290777964614
aI29
asS'07020400'
p2065
(lp2066
F0.0593254730716943
aI105
asS'03001101'
p2067
(lp2068
F-0.017769122175324538
aI7
asS'03001100'
p2069
(lp2070
F-0.34455796857045234
aI18
asS'10010701'
p2071
(lp2072
F0.0542065837548492
aI3
asS'10010700'
p2073
(lp2074
F0.06064382885687084
aI173
asS'12000900'
p2075
(lp2076
F0.02173928046922278
aI98
asS'09030100'
p2077
(lp2078
F0.11653023237001472
aI12
asS'00030300'
p2079
(lp2080
F-0.05051738481066019
aI2
asS'00030301'
p2081
(lp2082
F-0.12805899851738473
aI26
asS'00030302'
p2083
(lp2084
F-0.06540554510345865
aI47
asS'00030303'
p2085
(lp2086
F0.06906345101774632
aI37
asS'00030305'
p2087
(lp2088
F0.026447859338148565
aI22
asS'09000000'
p2089
(lp2090
F-0.1329070111261211
aI1
asS'07000802'
p2091
(lp2092
F0.10557497337630559
aI1
asS'07000801'
p2093
(lp2094
F-0.008153170364221696
aI85
asS'07000800'
p2095
(lp2096
F0.011179810477305673
aI337
asS'06030201'
p2097
(lp2098
F0.019082489540430934
aI18
asS'06030200'
p2099
(lp2100
F0.3220360046666465
aI24
asS'09021000'
p2101
(lp2102
F0.09303946662148195
aI3
asS'03020401'
p2103
(lp2104
F-0.020906465786097436
aI55
asS'03020400'
p2105
(lp2106
F0.0781114066711915
aI37
asS'03020403'
p2107
(lp2108
F-0.005161612679627781
aI2
asS'03020402'
p2109
(lp2110
F-0.011254626747022163
aI57
asS'01010704'
p2111
(lp2112
F-0.017430239809892847
aI30
asS'01010703'
p2113
(lp2114
F-0.2610530116009137
aI44
asS'01010702'
p2115
(lp2116
F-0.2157039216831682
aI137
asS'01010701'
p2117
(lp2118
F-0.19830349887567383
aI150
asS'01010700'
p2119
(lp2120
F-0.0169407627459494
aI10
asS'06020101'
p2121
(lp2122
F0.1844128223852786
aI73
asS'06020100'
p2123
(lp2124
F0.8379335865933508
aI66
asS'06020102'
p2125
(lp2126
F0.32342400661649606
aI2
asS'05020300'
p2127
(lp2128
F0.19240401908566707
aI108
asS'05020301'
p2129
(lp2130
F0.21170985334457754
aI64
asS'05020302'
p2131
(lp2132
F0.024719910945396675
aI14
asS'01000001'
p2133
(lp2134
F-0.6247863408366395
aI67
asS'01000000'
p2135
(lp2136
F0.14498933431292396
aI1
asS'01000003'
p2137
(lp2138
F-0.6632608341976887
aI31
asS'01000002'
p2139
(lp2140
F0.10547565571551876
aI55
asS'01000005'
p2141
(lp2142
F-0.8152874659533914
aI13
asS'01000004'
p2143
(lp2144
F-0.6425014113928467
aI45
asS'00000901'
p2145
(lp2146
F0.11936955224682136
aI1
asS'00000902'
p2147
(lp2148
F0.03442578496854207
aI1
asS'00000104'
p2149
(lp2150
F-0.0698140152458644
aI1
asS'00000107'
p2151
(lp2152
F0.013023835201551426
aI1
asS'03000400'
p2153
(lp2154
F-0.048830856559165914
aI14
asS'10020300'
p2155
(lp2156
F0.08903505597392536
aI23
asS'09001200'
p2157
(lp2158
F-0.002851148755388718
aI436
asS'05030400'
p2159
(lp2160
F0.0018420495008573678
aI12
asS'05030401'
p2161
(lp2162
F-0.04880954663761526
aI6
asS'01020003'
p2163
(lp2164
F0.2633115589994474
aI154
asS'01020002'
p2165
(lp2166
F0.5496388749314304
aI226
asS'01020001'
p2167
(lp2168
F0.4888673960286606
aI405
asS'01020000'
p2169
(lp2170
F-0.1269410435065679
aI1
asS'01020005'
p2171
(lp2172
F-0.15491107748434602
aI54
asS'01020004'
p2173
(lp2174
F-0.36186167550968623
aI126
asS'02010902'
p2175
(lp2176
F-0.04183086389943952
aI22
asS'02040004'
p2177
(lp2178
F-0.05548629965424882
aI3
asS'02010901'
p2179
(lp2180
F-0.07812745988763409
aI12
asS'02040002'
p2181
(lp2182
F0.024183955393142317
aI27
asS'02040000'
p2183
(lp2184
F0.10164240405449579
aI1
asS'02040001'
p2185
(lp2186
F0.8191450686165473
aI37
asS'05010204'
p2187
(lp2188
F0.0005112540195269443
aI6
asS'01030103'
p2189
(lp2190
F0.21730464474058309
aI41
asS'01030102'
p2191
(lp2192
F0.27689470874453315
aI40
asS'01030101'
p2193
(lp2194
F0.5412581562251717
aI47
asS'01030100'
p2195
(lp2196
F0.5344901303679902
aI4
asS'01030104'
p2197
(lp2198
F-0.0226275180625989
aI15
asS'09020601'
p2199
(lp2200
F0.01863889128066267
aI4
asS'09020600'
p2201
(lp2202
F0.06245626400138378
aI80
asS'04010500'
p2203
(lp2204
F-0.028578319528927948
aI106
asS'04010501'
p2205
(lp2206
F-0.025407117527491883
aI99
asS'04010502'
p2207
(lp2208
F0.028805790162844618
aI52
asS'02020300'
p2209
(lp2210
F0.11696814749552187
aI29
asS'07010501'
p2211
(lp2212
F0.05439989553053533
aI45
asS'07010500'
p2213
(lp2214
F0.019716421510691695
aI164
asS'05000302'
p2215
(lp2216
F0.015970971248382353
aI7
asS'05000300'
p2217
(lp2218
F0.0706683121065869
aI52
asS'05000301'
p2219
(lp2220
F-0.023920660723603313
aI31
asS'06010802'
p2221
(lp2222
F-0.009581090635348094
aI7
asS'06010801'
p2223
(lp2224
F0.009294022692572837
aI74
asS'06010800'
p2225
(lp2226
F-0.011336849442263514
aI144
asS'05010000'
p2227
(lp2228
F0.07231964560389409
aI1
asS'05010001'
p2229
(lp2230
F0.43044388003491996
aI210
asS'05010002'
p2231
(lp2232
F0.3765862770601953
aI62
asS'05010003'
p2233
(lp2234
F-0.057965635716781407
aI3
asS'09011001'
p2235
(lp2236
F0.009322327724125713
aI14
asS'09011000'
p2237
(lp2238
F0.005006558112983162
aI121
asS'03010503'
p2239
(lp2240
F0.008130582657976636
aI12
asS'03010502'
p2241
(lp2242
F-0.004854211055779056
aI80
asS'03010501'
p2243
(lp2244
F0.00912527895632342
aI95
asS'03010500'
p2245
(lp2246
F-0.010304424814485775
aI85
asS'08030001'
p2247
(lp2248
F0.8000319051214579
aI38
asS'08030000'
p2249
(lp2250
F0.0003351255876494208
aI1
asS'12000600'
p2251
(lp2252
F-0.08798748999371947
aI1
asS'07020500'
p2253
(lp2254
F0.1834964156551825
aI109
asS'07020501'
p2255
(lp2256
F0.026586132475640383
aI26
asS'03001000'
p2257
(lp2258
F-0.02707429974542677
aI56
asS'03001001'
p2259
(lp2260
F-0.07875984984689699
aI54
asS'03001002'
p2261
(lp2262
F-0.49915625467580127
aI22
asS'05010901'
p2263
(lp2264
F-0.010404879185303136
aI63
asS'05010900'
p2265
(lp2266
F-0.03245203853276585
aI87
asS'05010902'
p2267
(lp2268
F-0.005984068643889513
aI9
asS'07000902'
p2269
(lp2270
F0.006422206171443897
aI12
asS'07000903'
p2271
(lp2272
F0.016637444077475194
aI3
asS'07000900'
p2273
(lp2274
F-0.03628980085051267
aI502
asS'07000901'
p2275
(lp2276
F-0.014298871505808478
aI131
asS'10010600'
p2277
(lp2278
F0.0703181565965599
aI82
asS'03040002'
p2279
(lp2280
F0.13277344917595588
aI1
asS'03040001'
p2281
(lp2282
F0.8207959642720806
aI15
asS'03040000'
p2283
(lp2284
F-0.08360965680665967
aI1
asS'09030000'
p2285
(lp2286
F-0.04391624476668278
aI1
asS'09030001'
p2287
(lp2288
F0.799236910854557
aI4
asS'02000503'
p2289
(lp2290
F-0.10495085182974594
aI26
asS'02000502'
p2291
(lp2292
F-0.426649052878088
aI68
asS'02000501'
p2293
(lp2294
F-0.2768371646376227
aI63
asS'02000500'
p2295
(lp2296
F0.0025882680233573693
aI47
asS'09000100'
p2297
(lp2298
F0.7805713963699269
aI7
asS'10020000'
p2299
(lp2300
F0.12436594588955294
aI1
asS'02030401'
p2301
(lp2302
F0.03783060709641353
aI5
asS'02030402'
p2303
(lp2304
F0.022013927184516724
aI1
asS'06030300'
p2305
(lp2306
F0.4300140025098104
aI38
asS'06030301'
p2307
(lp2308
F0.06066584666604085
aI11
asS'03020500'
p2309
(lp2310
F0.026644574068785107
aI35
asS'03020501'
p2311
(lp2312
F0.003915063033382274
aI53
asS'03020502'
p2313
(lp2314
F0.02598147174438696
aI24
asS'03020503'
p2315
(lp2316
F0.09020388342436281
aI7
asS'01010604'
p2317
(lp2318
F-0.020269562993257467
aI31
asS'01010602'
p2319
(lp2320
F-0.06662425865215094
aI215
asS'01010603'
p2321
(lp2322
F-0.16812979147832444
aI116
asS'01010600'
p2323
(lp2324
F-0.026127489007229013
aI19
asS'01010601'
p2325
(lp2326
F-0.11809320122856906
aI110
asS'05001200'
p2327
(lp2328
F-0.2289061944172768
aI34
asS'06020000'
p2329
(lp2330
F0.03746626081353599
aI1
asS'06020001'
p2331
(lp2332
F0.6517867687310448
aI156
asS'06020002'
p2333
(lp2334
F0.5513313362770891
aI56
asS'05020402'
p2335
(lp2336
F0.03328064192896203
aI14
asS'05020401'
p2337
(lp2338
F0.0343585537273246
aI63
asS'05020400'
p2339
(lp2340
F0.10163273919503452
aI109
asS'01000101'
p2341
(lp2342
F-0.6174928283889917
aI18
asS'01000102'
p2343
(lp2344
F-0.25316892019160425
aI19
asS'01000103'
p2345
(lp2346
F-0.6358607730662735
aI26
asS'01000104'
p2347
(lp2348
F0.09983409486205748
aI7
asS'01000106'
p2349
(lp2350
F-0.6344990982709799
aI5
asS'03030202'
p2351
(lp2352
F0.030117437248953716
aI25
asS'00000801'
p2353
(lp2354
F0.125030880145892
aI1
asS'00000802'
p2355
(lp2356
F-0.058304222617955134
aI1
asS'03030201'
p2357
(lp2358
F-0.0019043214456252997
aI21
asS'00000804'
p2359
(lp2360
F0.11212198288680594
aI1
asS'03030205'
p2361
(lp2362
F0.0006001436744963937
aI6
asS'01050000'
p2363
(lp2364
F-0.10408089899749032
aI1
asS'01050001'
p2365
(lp2366
F0.8071359372593894
aI19
asS'01020102'
p2367
(lp2368
F0.2891230799565896
aI101
asS'01020103'
p2369
(lp2370
F-0.14615333004053171
aI109
asS'01020100'
p2371
(lp2372
F0.41736881043657786
aI9
asS'01020101'
p2373
(lp2374
F0.3927289945750045
aI96
asS'01020106'
p2375
(lp2376
F-0.37105122242108546
aI8
asS'08040100'
p2377
(lp2378
F0.013185411053929535
aI1
asS'01020104'
p2379
(lp2380
F-0.22172198915343708
aI106
asS'01020105'
p2381
(lp2382
F0.02727880005941771
aI7
asS'10000800'
p2383
(lp2384
F0.01905950102331091
aI243
asS'04020104'
p2385
(lp2386
F-0.11456223443586483
aI1
asS'04020103'
p2387
(lp2388
F0.014503957599409548
aI17
asS'04020102'
p2389
(lp2390
F0.2536316477176134
aI61
asS'04020101'
p2391
(lp2392
F0.19869429920709672
aI117
asS'04020100'
p2393
(lp2394
F0.6194862375402858
aI32
asS'07030301'
p2395
(lp2396
F0.06317371270336848
aI5
asS'07030300'
p2397
(lp2398
F0.4111581208928266
aI29
asS'09020700'
p2399
(lp2400
F0.20359804866819756
aI68
asS'09020701'
p2401
(lp2402
F0.022365943154546333
aI5
asS'02020202'
p2403
(lp2404
F0.17762570754679566
aI74
asS'02020203'
p2405
(lp2406
F-0.07841821585912585
aI53
asS'02020200'
p2407
(lp2408
F-0.11284709431222684
aI14
asS'02020201'
p2409
(lp2410
F-0.13396468080193275
aI80
asS'02020204'
p2411
(lp2412
F-0.08233380281574292
aI11
asS'02020703'
p2413
(lp2414
F-0.0028311248895698028
aI24
asS'02001001'
p2415
(lp2416
F-0.3169162522503948
aI14
asS'02001000'
p2417
(lp2418
F-0.07473421712272288
aI8
asS'02001002'
p2419
(lp2420
F0.05579915944761551
aI18
asS'05050200'
p2421
(lp2422
F-0.0769361251117871
aI6
asS'02020702'
p2423
(lp2424
F-0.017245374945073354
aI7
asS'06010900'
p2425
(lp2426
F-0.03869828242716586
aI100
asS'06010901'
p2427
(lp2428
F0.03821838120092684
aI57
asS'05010703'
p2429
(lp2430
F-0.0027659649184649943
aI3
asS'05010702'
p2431
(lp2432
F-0.0056842690263304635
aI22
asS'05010701'
p2433
(lp2434
F0.014287453191112569
aI99
asS'05010700'
p2435
(lp2436
F-0.02646378407516802
aI137
asS'09011100'
p2437
(lp2438
F0.02322447271195557
aI46
asS'03010402'
p2439
(lp2440
F-0.0592820850124204
aI78
asS'03010403'
p2441
(lp2442
F-0.029521218525288488
aI10
asS'03010400'
p2443
(lp2444
F-0.0037277489330838597
aI72
asS'03010401'
p2445
(lp2446
F0.0674564642755851
aI100
asS'08040200'
p2447
(lp2448
F0.7844420280212021
aI3
asS'08030100'
p2449
(lp2450
F0.8320954725638119
aI23
asS'08030101'
p2451
(lp2452
F-0.04771954618044632
aI5
asS'09030300'
p2453
(lp2454
F0.4325584805844892
aI19
asS'12000700'
p2455
(lp2456
F0.04600624750565932
aI12
asS'04000901'
p2457
(lp2458
F-0.10876045885072376
aI135
asS'04000900'
p2459
(lp2460
F-0.03940570249753885
aI145
asS'04000903'
p2461
(lp2462
F0.06152084623223089
aI10
asS'04000902'
p2463
(lp2464
F-0.08845010146955029
aI54
asS'01000801'
p2465
(lp2466
F-0.6635429559846211
aI51
asS'01000800'
p2467
(lp2468
F-0.0003140160892338706
aI2
asS'01000803'
p2469
(lp2470
F-0.8285417156015736
aI28
asS'01000802'
p2471
(lp2472
F-0.032615067064545505
aI66
asS'05010800'
p2473
(lp2474
F-0.007139126182731471
aI101
asS'01000804'
p2475
(lp2476
F-0.7848587528093478
aI3
asS'05010802'
p2477
(lp2478
F0.013071749402773045
aI28
asS'05010803'
p2479
(lp2480
F0.04883881529526991
aI5
asS'00020702'
p2481
(lp2482
F0.02813325103421494
aI24
asS'03040101'
p2483
(lp2484
F-0.02748963039943128
aI6
asS'02010102'
p2485
(lp2486
F0.10678007354490077
aI59
asS'02010103'
p2487
(lp2488
F-0.2067498028516354
aI73
asS'02010100'
p2489
(lp2490
F-0.12958496736342962
aI15
asS'02010101'
p2491
(lp2492
F-0.03612692227669634
aI87
asS'02010104'
p2493
(lp2494
F0.07208425370141491
aI47
asS'06020701'
p2495
(lp2496
F-0.0006788879349173757
aI19
asS'06020700'
p2497
(lp2498
F0.008009550812054284
aI12
asS'01040201'
p2499
(lp2500
F-0.04334318148708016
aI2
asS'02000404'
p2501
(lp2502
F0.04561315000699409
aI1
asS'02000402'
p2503
(lp2504
F-0.3643320162591145
aI39
asS'02000403'
p2505
(lp2506
F-0.2895524666032987
aI14
asS'02000400'
p2507
(lp2508
F-0.09529317434449684
aI8
asS'02000401'
p2509
(lp2510
F-0.12369848005997315
aI61
asS'06000301'
p2511
(lp2512
F0.14575203405462886
aI15
asS'06000300'
p2513
(lp2514
F0.08293015762687628
aI34
asS'10020100'
p2515
(lp2516
F0.8484720937778557
aI7
asS'02030501'
p2517
(lp2518
F-0.008863134674295288
aI4
asS'06030001'
p2519
(lp2520
F0.8280211473264417
aI52
asS'06030000'
p2521
(lp2522
F-0.023267587421384545
aI1
asS'06030002'
p2523
(lp2524
F0.29556849270528124
aI13
asS'03020203'
p2525
(lp2526
F-0.05263048779296238
aI50
asS'03020202'
p2527
(lp2528
F0.07311666357138577
aI69
asS'03020201'
p2529
(lp2530
F0.038493772545017346
aI85
asS'03020200'
p2531
(lp2532
F0.40861515803032367
aI39
asS'03020204'
p2533
(lp2534
F0.0323523962567778
aI2
asS'01010505'
p2535
(lp2536
F0.05485246780539017
aI17
asS'01010504'
p2537
(lp2538
F-0.042662885245308174
aI27
asS'10000700'
p2539
(lp2540
F0.025374081059618282
aI114
asS'01010500'
p2541
(lp2542
F-0.08346890934523093
aI20
asS'01010503'
p2543
(lp2544
F-0.09304912552695307
aI158
asS'01010502'
p2545
(lp2546
F-0.2835734339132698
aI244
asS'08010401'
p2547
(lp2548
F0.037404626502564806
aI12
asS'08010400'
p2549
(lp2550
F0.2332670289195381
aI133
asS'05020502'
p2551
(lp2552
F-0.014456749233302361
aI4
asS'05020500'
p2553
(lp2554
F0.14532424467684074
aI87
asS'05020501'
p2555
(lp2556
F0.13467911535888372
aI67
asS'03030101'
p2557
(lp2558
F0.4282165258608268
aI48
asS'03030100'
p2559
(lp2560
F0.5448978378882187
aI2
asS'03030103'
p2561
(lp2562
F0.0382348917840615
aI5
asS'03030102'
p2563
(lp2564
F0.12566197048042446
aI38
asS'06010002'
p2565
(lp2566
F0.4268740613016089
aI9
asS'06010001'
p2567
(lp2568
F0.5891082600762392
aI164
asS'06010000'
p2569
(lp2570
F-1.797866997077513e-05
aI1
asS'00000705'
p2571
(lp2572
F0.06779985566318239
aI1
asS'00000703'
p2573
(lp2574
F0.05031825404427437
aI1
asS'00000702'
p2575
(lp2576
F-0.14197815256015858
aI1
asS'00000701'
p2577
(lp2578
F0.06651620688558707
aI1
asS'00000700'
p2579
(lp2580
F-0.07555484083093178
aI1
asS'01040001'
p2581
(lp2582
F0.8012396944294067
aI95
asS'01040000'
p2583
(lp2584
F-0.11923359391582995
aI1
asS'02010500'
p2585
(lp2586
F0.0444493576634004
aI28
asS'01040002'
p2587
(lp2588
F0.4082551934982889
aI43
asS'05030600'
p2589
(lp2590
F-0.008422477396920869
aI1
asS'01020201'
p2591
(lp2592
F0.20950686603900764
aI93
asS'01020200'
p2593
(lp2594
F0.31915370231060897
aI6
asS'01020203'
p2595
(lp2596
F0.0540910738573227
aI84
asS'01020202'
p2597
(lp2598
F-0.09910602177860339
aI82
asS'01020205'
p2599
(lp2600
F-0.3334949197834332
aI34
asS'01020204'
p2601
(lp2602
F-0.1591639271783501
aI52
asS'01020206'
p2603
(lp2604
F0.030454341801434595
aI4
asS'00010801'
p2605
(lp2606
F0.005402151698877967
aI4
asS'00010800'
p2607
(lp2608
F0.13951834104127478
aI1
asS'00010803'
p2609
(lp2610
F-0.0058705992901763576
aI59
asS'00010802'
p2611
(lp2612
F-0.012754358567914272
aI35
asS'00010804'
p2613
(lp2614
F0.03911216632599274
aI19
asS'09030800'
p2615
(lp2616
F-0.005486310438651332
aI1
asS'04030500'
p2617
(lp2618
F0.005022300148816883
aI6
asS'04030501'
p2619
(lp2620
F0.14813306469664136
aI1
asS'04020004'
p2621
(lp2622
F0.05601833356393901
aI12
asS'04020002'
p2623
(lp2624
F0.4251978756623015
aI148
asS'04020003'
p2625
(lp2626
F0.17018843561043986
aI13
asS'04020000'
p2627
(lp2628
F-0.10960577362647736
aI1
asS'04020001'
p2629
(lp2630
F0.10496509755514427
aI408
asS'04040200'
p2631
(lp2632
F-0.036414813287972095
aI4
asS'05040200'
p2633
(lp2634
F-0.07508994100223809
aI3
asS'07030200'
p2635
(lp2636
F0.5431456559087671
aI44
asS'07030201'
p2637
(lp2638
F0.2743284030526989
aI6
asS'09020000'
p2639
(lp2640
F0.09085758397806429
aI1
asS'02020101'
p2641
(lp2642
F0.4340833353970547
aI122
asS'02020100'
p2643
(lp2644
F0.56914807317898
aI10
asS'02020103'
p2645
(lp2646
F-0.05654045203466569
aI65
asS'02020102'
p2647
(lp2648
F0.37312253833466136
aI85
asS'02020104'
p2649
(lp2650
F-0.1508610113487989
aI59
asS'08030201'
p2651
(lp2652
F0.021716640230943017
aI3
asS'08030200'
p2653
(lp2654
F0.5149572441824584
aI28
asS'02001100'
p2655
(lp2656
F0.06013197665152534
aI1
asS'02001101'
p2657
(lp2658
F0.05159970157420071
aI2
asS'03030004'
p2659
(lp2660
F0.03627283640622417
aI1
asS'00030403'
p2661
(lp2662
F0.09912758506813887
aI1
asS'00030402'
p2663
(lp2664
F0.04220315508534714
aI2
asS'00030401'
p2665
(lp2666
F-0.006605183608614201
aI7
asS'00030400'
p2667
(lp2668
F-0.00957780958719213
aI8
asS'08000901'
p2669
(lp2670
F-0.01126495115872836
aI71
asS'08000900'
p2671
(lp2672
F-0.033813091340188124
aI581
asS'08000902'
p2673
(lp2674
F0.047632115820437096
aI9
asS'10020800'
p2675
(lp2676
F0.07639305286758713
aI51
asS'03010701'
p2677
(lp2678
F0.00232990799007559
aI121
asS'03010700'
p2679
(lp2680
F-0.0004809530401895523
aI56
asS'03010703'
p2681
(lp2682
F-0.04568558675198435
aI12
asS'03010702'
p2683
(lp2684
F0.005206390926046585
aI48
asS'09030200'
p2685
(lp2686
F0.8266561813339056
aI18
asS'04000800'
p2687
(lp2688
F-0.10232371142200204
aI175
asS'04000801'
p2689
(lp2690
F-0.050966336410162114
aI150
asS'04000802'
p2691
(lp2692
F-0.02420890485182093
aI73
asS'04000803'
p2693
(lp2694
F-0.04079201638354642
aI9
asS'01000900'
p2695
(lp2696
F-0.7899664082583111
aI3
asS'01000901'
p2697
(lp2698
F-0.6607482887181101
aI8
asS'01000902'
p2699
(lp2700
F-0.8342931069016173
aI25
asS'01000903'
p2701
(lp2702
F0.10122388219202014
aI8
asS'10000600'
p2703
(lp2704
F0.06582868535021406
aI61
asS'00020604'
p2705
(lp2706
F-0.09821452294304434
aI6
asS'00020601'
p2707
(lp2708
F-0.12857655244698374
aI27
asS'00020602'
p2709
(lp2710
F0.022217767903040163
aI56
asS'00020603'
p2711
(lp2712
F0.0023149307587128215
aI22
asS'02010201'
p2713
(lp2714
F-0.1763737131286719
aI62
asS'02010200'
p2715
(lp2716
F0.43502058739377103
aI28
asS'02010203'
p2717
(lp2718
F0.07324491257922379
aI39
asS'02010202'
p2719
(lp2720
F-0.1568478684321634
aI93
asS'02010205'
p2721
(lp2722
F0.05775686120749189
aI10
asS'08020501'
p2723
(lp2724
F-0.00927286320362078
aI7
asS'08020500'
p2725
(lp2726
F0.09117614428503522
aI110
asS'01010404'
p2727
(lp2728
F-0.3580082598258811
aI52
asS'01010405'
p2729
(lp2730
F0.1048313113577818
aI37
asS'01010406'
p2731
(lp2732
F-0.047261631537128326
aI4
asS'01010400'
p2733
(lp2734
F-0.11355463514046697
aI15
asS'01010401'
p2735
(lp2736
F-0.1529396113850946
aI129
asS'01010402'
p2737
(lp2738
F-0.0997422133564983
aI118
asS'01010403'
p2739
(lp2740
F-0.6213979761371664
aI133
asS'06020600'
p2741
(lp2742
F0.09033636918574944
aI94
asS'06020601'
p2743
(lp2744
F0.02435653808428273
aI21
asS'05000801'
p2745
(lp2746
F-0.12249390330188221
aI143
asS'05000800'
p2747
(lp2748
F-0.07044281373709474
aI221
asS'05000803'
p2749
(lp2750
F0.00958314308746433
aI6
asS'05000802'
p2751
(lp2752
F-0.14068309736364293
aI41
asS'00010302'
p2753
(lp2754
F-0.7775735702606645
aI328
asS'00010303'
p2755
(lp2756
F-0.5949295811778992
aI348
asS'00010300'
p2757
(lp2758
F0.11335913112356874
aI19
asS'00010301'
p2759
(lp2760
F-0.5917119395296896
aI110
asS'00010306'
p2761
(lp2762
F-0.7874662305837842
aI164
asS'00010307'
p2763
(lp2764
F-0.7839200774605215
aI48
asS'00010304'
p2765
(lp2766
F-0.27137737819236585
aI413
asS'00010305'
p2767
(lp2768
F-0.796618621468052
aI325
asS'04000101'
p2769
(lp2770
F0.12497519270583157
aI15
asS'04000100'
p2771
(lp2772
F0.5371958195703599
aI9
asS'04000102'
p2773
(lp2774
F0.19119769604655584
aI19
asS'10010900'
p2775
(lp2776
F0.03119315980168698
aI267
asS'06001001'
p2777
(lp2778
F-0.04181668560671599
aI130
asS'06001000'
p2779
(lp2780
F-0.10866087970027342
aI257
asS'06001002'
p2781
(lp2782
F-0.025486697464097468
aI21
asS'06000200'
p2783
(lp2784
F-0.07717772365503775
aI10
asS'06000201'
p2785
(lp2786
F-0.001001105194537777
aI1
asS'07000201'
p2787
(lp2788
F0.03442038028537825
aI1
asS'07000200'
p2789
(lp2790
F0.16619580580717788
aI19
asS'02030203'
p2791
(lp2792
F-0.1167296997510461
aI2
asS'02030202'
p2793
(lp2794
F0.19758195177288512
aI23
asS'02030201'
p2795
(lp2796
F0.06142510219307301
aI11
asS'02030200'
p2797
(lp2798
F0.019364090106496798
aI2
asS'02030205'
p2799
(lp2800
F0.015986436579748492
aI1
asS'06030100'
p2801
(lp2802
F0.6051566008816771
aI26
asS'06030101'
p2803
(lp2804
F0.40547052823757224
aI31
asS'03020302'
p2805
(lp2806
F0.16172396054614574
aI67
asS'03020303'
p2807
(lp2808
F-0.009171408166142866
aI18
asS'03020300'
p2809
(lp2810
F0.3361041785285844
aI36
asS'03020301'
p2811
(lp2812
F0.09796660862429875
aI61
asS'04011000'
p2813
(lp2814
F-0.03145651332651341
aI7
asS'04011001'
p2815
(lp2816
F0.00744720506930081
aI20
asS'08010500'
p2817
(lp2818
F0.005989239401984392
aI163
asS'08010501'
p2819
(lp2820
F0.0325942463422318
aI22
asS'05020601'
p2821
(lp2822
F0.0910551910960307
aI29
asS'05020600'
p2823
(lp2824
F0.10187936268259407
aI49
asS'05020602'
p2825
(lp2826
F0.013539032374299861
aI4
asS'03030000'
p2827
(lp2828
F-0.0940147066468768
aI1
asS'03030001'
p2829
(lp2830
F0.7959755434040845
aI92
asS'03030002'
p2831
(lp2832
F0.34697237712809215
aI87
asS'03030003'
p2833
(lp2834
F0.16875405770291915
aI22
asS'06010102'
p2835
(lp2836
F0.2076572186456441
aI10
asS'06010100'
p2837
(lp2838
F0.8033252624681363
aI78
asS'06010101'
p2839
(lp2840
F0.5852564323906242
aI55
asS'00000604'
p2841
(lp2842
F-0.13608254755905247
aI1
asS'00000602'
p2843
(lp2844
F-0.040320476620290355
aI1
asS'00000603'
p2845
(lp2846
F-0.06382670978965482
aI1
asS'00000600'
p2847
(lp2848
F-4.604333974894681e-05
aI1
asS'00000601'
p2849
(lp2850
F-0.07021466199694705
aI1
asS'03030200'
p2851
(lp2852
F0.055502957335258486
aI11
asS'08000200'
p2853
(lp2854
F0.6317869704592517
aI11
asS'00000803'
p2855
(lp2856
F-0.09600936156590145
aI1
asS'01020300'
p2857
(lp2858
F0.20663195855024905
aI18
asS'01020301'
p2859
(lp2860
F-0.11532467962392876
aI79
asS'01020302'
p2861
(lp2862
F0.09045632390244426
aI89
asS'01020303'
p2863
(lp2864
F-0.10630114611247277
aI45
asS'01020304'
p2865
(lp2866
F0.03499645399181399
aI26
asS'01020305'
p2867
(lp2868
F0.08432110168974384
aI16
asS'01020306'
p2869
(lp2870
F-0.009663253093216721
aI13
asS'02020604'
p2871
(lp2872
F-0.04428374802860857
aI4
as.