(dp0
S'05020001'
p1
(lp2
F0.0017545783057252339
aI9
asS'03000401'
p3
(lp4
F-0.03247221780558726
aI2
asS'09001100'
p5
(lp6
F0.012360405741798003
aI12
asS'03020101'
p7
(lp8
F0.046955681841242665
aI3
asS'03020102'
p9
(lp10
F-0.02722572417005628
aI1
asS'05020000'
p11
(lp12
F-0.014798557434177961
aI1
asS'05020300'
p13
(lp14
F-0.034378751013005124
aI2
asS'05020301'
p15
(lp16
F0.0772401368648149
aI6
asS'10010500'
p17
(lp18
F-0.08604523567546685
aI2
asS'08001100'
p19
(lp20
F0.024469279819808783
aI5
asS'08020600'
p21
(lp22
F-0.0747705195136567
aI4
asS'05010203'
p23
(lp24
F0.00462209310655798
aI6
asS'05010200'
p25
(lp26
F0.06785887870704632
aI2
asS'09000900'
p27
(lp28
F0.044263706005139264
aI7
asS'08010200'
p29
(lp30
F0.01810193028043007
aI5
asS'04010100'
p31
(lp32
F0.0005666585772479416
aI2
asS'04010101'
p33
(lp34
F-0.00530785201035984
aI4
asS'03030001'
p35
(lp36
F0.022048963397977385
aI10
asS'08000700'
p37
(lp38
F-0.018445811118660213
aI2
asS'09010900'
p39
(lp40
F0.005166923453535603
aI5
asS'08020800'
p41
(lp42
F0.04638084271914772
aI4
asS'05030001'
p43
(lp44
F0.06385792430682785
aI10
asS'05010800'
p45
(lp46
F-0.09000520163877386
aI4
asS'07011000'
p47
(lp48
F-0.04880976466471865
aI9
asS'04020100'
p49
(lp50
F0.7773684448192039
aI3
asS'06000800'
p51
(lp52
F0.054884352483030516
aI4
asS'07020200'
p53
(lp54
F-0.06482007999271418
aI6
asS'09001200'
p55
(lp56
F0.008753317075103753
aI12
asS'06010200'
p57
(lp58
F0.005940115374267391
aI1
asS'07010800'
p59
(lp60
F0.03725065807821108
aI13
asS'08000900'
p61
(lp62
F-0.057312296605423585
aI4
asS'06010300'
p63
(lp64
F0.05379971739497836
aI3
asS'11001000'
p65
(lp66
F0.030257976754662092
aI6
asS'06020300'
p67
(lp68
F0.039985016878668234
aI5
asS'08010800'
p69
(lp70
F0.0041805303016623895
aI5
asS'01020003'
p71
(lp72
F0.05577473481242525
aI11
asS'01020002'
p73
(lp74
F0.5055248683549848
aI9
asS'01020001'
p75
(lp76
F0.7995377845160762
aI16
asS'01020000'
p77
(lp78
F-0.013240198117001112
aI1
asS'08011000'
p79
(lp80
F0.008462296801741072
aI10
asS'01020004'
p81
(lp82
F0.05089181757396388
aI8
asS'10001000'
p83
(lp84
F0.08630326266091087
aI7
asS'04010400'
p85
(lp86
F0.05930169212635322
aI2
asS'04010403'
p87
(lp88
F0.03941121050849761
aI1
asS'02020400'
p89
(lp90
F0.023930866367253834
aI12
asS'07020800'
p91
(lp92
F0.04773175217429103
aI3
asS'09000600'
p93
(lp94
F-0.10405884951440786
aI1
asS'07020600'
p95
(lp96
F0.03524444683020192
aI3
asS'10000600'
p97
(lp98
F0.04734132236977584
aI1
asS'12001000'
p99
(lp100
F0.06638359937467518
aI3
asS'06010601'
p101
(lp102
F0.006707308221109179
aI7
asS'02020001'
p103
(lp104
F0.7898696322092684
aI7
asS'02020002'
p105
(lp106
F0.043660986105772626
aI6
asS'06020001'
p107
(lp108
F-0.015271148526435456
aI5
asS'05020101'
p109
(lp110
F-0.07447855557023386
aI6
asS'07001100'
p111
(lp112
F-0.036274793556558826
aI1
asS'06010700'
p113
(lp114
F-0.06613261972739916
aI1
asS'06020700'
p115
(lp116
F-0.06048910293933185
aI1
asS'02030001'
p117
(lp118
F-0.04248009843528964
aI5
asS'11001200'
p119
(lp120
F0.02716468816351527
aI20
asS'05030300'
p121
(lp122
F0.056936405745120225
aI5
asS'09001000'
p123
(lp124
F0.02911895208359036
aI9
asS'04010200'
p125
(lp126
F0.07176245345682983
aI3
asS'06020400'
p127
(lp128
F0.01621496490400106
aI5
asS'05020401'
p129
(lp130
F0.04932094180874652
aI8
asS'05020400'
p131
(lp132
F-0.07368956600628045
aI1
asS'08001200'
p133
(lp134
F0.08318057746578594
aI2
asS'09000800'
p135
(lp136
F-0.07509534075828066
aI6
asS'07000500'
p137
(lp138
F-0.04339032107382068
aI1
asS'08010300'
p139
(lp140
F0.06024104393694714
aI3
asS'10000400'
p141
(lp142
F-0.09209861564001151
aI1
asS'09010800'
p143
(lp144
F0.006563701603920995
aI3
asS'01010201'
p145
(lp146
F0.026667513238233638
aI12
asS'05000501'
p147
(lp148
F0.012816762706069684
aI7
asS'07020300'
p149
(lp150
F0.000115792748069804
aI2
asS'09010500'
p151
(lp152
F-0.01225503469638172
aI5
asS'04000501'
p153
(lp154
F-0.016888000231005614
aI6
asS'09010700'
p155
(lp156
F-0.008807202601236304
aI2
asS'08000800'
p157
(lp158
F-0.0028819254134507533
aI2
asS'06010400'
p159
(lp160
F0.04708790337367671
aI5
asS'11001100'
p161
(lp162
F0.0626392786564328
aI26
asS'01030000'
p163
(lp164
F-0.006719719369416399
aI1
asS'08010900'
p165
(lp166
F0.0026840968271044305
aI6
asS'05010600'
p167
(lp168
F0.0009010536623353814
aI3
asS'05010601'
p169
(lp170
F-0.01765577426753742
aI17
asS'05010302'
p171
(lp172
F0.1069358498384243
aI10
asS'06010600'
p173
(lp174
F-0.07818278091358294
aI13
asS'01020103'
p175
(lp176
F0.02271178735851542
aI3
asS'04030001'
p177
(lp178
F0.7948188785194413
aI10
asS'04030000'
p179
(lp180
F-0.04624396863810931
aI1
asS'04010500'
p181
(lp182
F0.08841297182783951
aI3
asS'06000700'
p183
(lp184
F-0.08302384190944585
aI8
asS'02020300'
p185
(lp186
F-0.10916558335303388
aI1
asS'07020900'
p187
(lp188
F-0.07482422418224466
aI5
asS'09000700'
p189
(lp190
F-0.09978544597853134
aI4
asS'05030000'
p191
(lp192
F0.1455331111380527
aI1
asS'08001000'
p193
(lp194
F0.046807462885356005
aI6
asS'06030001'
p195
(lp196
F-0.07667126705020247
aI5
asS'03020201'
p197
(lp198
F-0.03924879341161443
aI1
asS'09020800'
p199
(lp200
F-0.041480160834291555
aI6
asS'04020301'
p201
(lp202
F0.10462268292442198
aI4
asS'04020300'
p203
(lp204
F-0.009635443378599798
aI2
asS'07020700'
p205
(lp206
F-0.06413531255697205
aI4
asS'10000800'
p207
(lp208
F-0.08190438033303668
aI2
asS'10000700'
p209
(lp210
F0.0305243663134456
aI1
asS'08020500'
p211
(lp212
F-0.10435799784054964
aI1
asS'07020400'
p213
(lp214
F0.0376407957016463
aI1
asS'12001200'
p215
(lp216
F0.027287447778970145
aI55
asS'08020400'
p217
(lp218
F-0.05379059725514079
aI11
asS'06020600'
p219
(lp220
F-0.03915469041421923
aI7
asS'06020601'
p221
(lp222
F-0.03236755097055284
aI2
asS'05000800'
p223
(lp224
F-0.0430741798410017
aI2
asS'05030200'
p225
(lp226
F0.5167510200296225
aI3
asS'08010400'
p227
(lp228
F0.0913459603330291
aI3
asS'08000600'
p229
(lp230
F-0.08762414340400197
aI4
asS'06010800'
p231
(lp232
F0.023607824290598725
aI8
asS'05020500'
p233
(lp234
F0.07910104330447157
aI9
asS'05020501'
p235
(lp236
F0.033739445277500016
aI2
asS'10010700'
p237
(lp238
F0.011795607443002828
aI3
asS'07010600'
p239
(lp240
F0.07459882777848406
aI3
asS'05000601'
p241
(lp242
F-0.05637804676202917
aI4
asS'05000600'
p243
(lp244
F-0.034705791394334023
aI4
asS'10010900'
p245
(lp246
F-0.10794627203145526
aI5
asS'01010102'
p247
(lp248
F-0.043561343612567235
aI13
asS'01010003'
p249
(lp250
F0.036973649744296413
aI4
asS'04020103'
p251
(lp252
F-0.020576640721806476
aI3
asS'04020102'
p253
(lp254
F-0.10202668595827998
aI4
asS'04020101'
p255
(lp256
F0.05565567864137261
aI5
asS'04010501'
p257
(lp258
F-0.0022206278579582324
aI3
asS'10001200'
p259
(lp260
F0.019339485297413757
aI13
asS'03010501'
p261
(lp262
F0.027474760279980904
aI7
asS'03010500'
p263
(lp264
F-0.13203510416904643
aI1
asS'03000201'
p265
(lp266
F-0.05635592530127503
aI4
asS'01020301'
p267
(lp268
F0.03544540406642828
aI13
asS'11000900'
p269
(lp270
F-0.028436126883440008
aI3
asS'05010501'
p271
(lp272
F-0.13329104985964338
aI1
asS'05010500'
p273
(lp274
F-0.053744979522162235
aI9
asS'05010502'
p275
(lp276
F0.0668677596874351
aI4
asS'10011000'
p277
(lp278
F0.0026187372082596347
aI4
asS'00020102'
p279
(lp280
F-0.02630307631075797
aI1
asS'01020202'
p281
(lp282
F0.013956526837110711
aI3
asS'09020700'
p283
(lp284
F-0.0734615419607812
aI1
asS'08010600'
p285
(lp286
F0.01530915492908122
aI4
asS'12000900'
p287
(lp288
F0.06225776275716306
aI2
asS'07000600'
p289
(lp290
F-0.048178211337877266
aI2
asS'06030100'
p291
(lp292
F-0.020402366269876862
aI2
asS'00020003'
p293
(lp294
F0.07493638981578557
aI11
asS'09020900'
p295
(lp296
F-0.04818009750396375
aI3
asS'04020200'
p297
(lp298
F-0.10308582179516884
aI3
asS'04020201'
p299
(lp300
F0.06741493686393911
aI5
asS'04020202'
p301
(lp302
F-0.08607302985838326
aI1
asS'04020203'
p303
(lp304
F-0.039977568206113395
aI6
asS'03020001'
p305
(lp306
F0.7817502050883123
aI4
asS'03020000'
p307
(lp308
F-0.13919332204964366
aI1
asS'03020003'
p309
(lp310
F-0.004462429236648385
aI1
asS'03020002'
p311
(lp312
F0.04212190086823213
aI5
asS'05020201'
p313
(lp314
F-0.11410177288267688
aI7
asS'07020500'
p315
(lp316
F-0.0027641213041394164
aI2
asS'08020700'
p317
(lp318
F-0.04464087694201856
aI3
asS'05010300'
p319
(lp320
F0.06686616812915527
aI3
asS'06020501'
p321
(lp322
F-0.025823745753396826
aI2
asS'06020500'
p323
(lp324
F-0.003970693012542718
aI7
asS'09011000'
p325
(lp326
F0.05602636654834102
aI9
asS'07010700'
p327
(lp328
F0.0028384320775766414
aI7
asS'00010001'
p329
(lp330
F0.018131192831330134
aI1
asS'00010002'
p331
(lp332
F0.08430516140087893
aI1
asS'04010001'
p333
(lp334
F0.7980474307631337
aI8
asS'04010000'
p335
(lp336
F0.11993284715045169
aI1
asS'06010900'
p337
(lp338
F0.05632484005758327
aI2
asS'10000900'
p339
(lp340
F-0.04592681653661083
aI3
asS'08020900'
p341
(lp342
F0.0836636594685442
aI1
asS'10010600'
p343
(lp344
F-0.0026284890637230107
aI3
asS'09010400'
p345
(lp346
F0.059457977406516704
aI3
asS'08010500'
p347
(lp348
F0.06421655638186481
aI5
asS'05000700'
p349
(lp350
F0.05259158065085193
aI3
asS'05010700'
p351
(lp352
F-0.018746088802727184
aI3
asS'04020104'
p353
(lp354
F0.06246414864672957
aI2
asS'03030002'
p355
(lp356
F-0.03191768351223216
aI7
asS'07010900'
p357
(lp358
F-0.11404797565478406
aI8
asS'08010100'
p359
(lp360
F-0.10244028467807656
aI1
asS'10010800'
p361
(lp362
F-0.004409444017670808
aI3
asS'07000800'
p363
(lp364
F-0.018808389481218574
aI6
asS'07000900'
p365
(lp366
F0.03146153904062898
aI2
asS'08020300'
p367
(lp368
F-0.05378374286918284
aI4
asS'04020002'
p369
(lp370
F-0.10944493377769915
aI3
asS'04020003'
p371
(lp372
F-0.11333811015220718
aI12
asS'04020000'
p373
(lp374
F-0.06560749088065121
aI1
asS'04020001'
p375
(lp376
F0.8060396281031167
aI7
asS'10001100'
p377
(lp378
F0.0396602821344797
aI21
asS'10000500'
p379
(lp380
F0.04617209363666873
aI4
asS'03010400'
p381
(lp382
F0.07308881623440572
aI4
asS'03010401'
p383
(lp384
F-0.028035220945507255
aI2
asS'03000301'
p385
(lp386
F0.012479999504749295
aI9
asS'06030200'
p387
(lp388
F-0.07609504488325905
aI1
asS'05010400'
p389
(lp390
F0.008080524290585776
aI3
asS'08020200'
p391
(lp392
F-0.1494351801742506
aI1
asS'05010402'
p393
(lp394
F-0.10671358836190106
aI3
asS'00020002'
p395
(lp396
F-0.022178465877425765
aI7
asS'02000201'
p397
(lp398
F-0.08330882198420743
aI8
asS'00020000'
p399
(lp400
F-0.05231061030206459
aI1
asS'00020001'
p401
(lp402
F0.7934100329302385
aI23
asS'07020100'
p403
(lp404
F-0.015039498704012074
aI3
asS'07020101'
p405
(lp406
F-0.07151861050857425
aI3
asS'08010700'
p407
(lp408
F0.05019529808605563
aI5
asS'12001100'
p409
(lp410
F0.03112880690087091
aI15
asS'06010500'
p411
(lp412
F-0.002755995876960113
aI7
asS'06020101'
p413
(lp414
F-0.09573102401909603
aI4
asS'06020100'
p415
(lp416
F-0.0701304671525187
aI2
asS'07000700'
p417
(lp418
F-0.04080966872813892
aI1
asS'05030100'
p419
(lp420
F0.5187200095284865
aI2
as.