(dp0
S'05000701'
p1
(lp2
F-0.08238438361428642
aI1
asS'05020001'
p3
(lp4
F0.1620680040869671
aI15
asS'03000401'
p5
(lp6
F-0.03247221780558726
aI2
asS'09001100'
p7
(lp8
F0.029713993747360022
aI25
asS'03020101'
p9
(lp10
F0.0334186195779971
aI18
asS'03020102'
p11
(lp12
F-0.02722572417005628
aI1
asS'05020000'
p13
(lp14
F-0.014798557434177961
aI1
asS'05020300'
p15
(lp16
F-0.053441905735134534
aI4
asS'05020301'
p17
(lp18
F0.0772401368648149
aI6
asS'10010500'
p19
(lp20
F-0.08604523567546685
aI2
asS'06020500'
p21
(lp22
F0.008227680896496448
aI10
asS'04010401'
p23
(lp24
F0.032156365047230955
aI3
asS'08001100'
p25
(lp26
F-0.019105028866469777
aI7
asS'08020600'
p27
(lp28
F-0.0747705195136567
aI4
asS'05010203'
p29
(lp30
F0.00462209310655798
aI6
asS'05010200'
p31
(lp32
F0.06785887870704632
aI2
asS'06020400'
p33
(lp34
F-0.04487306639676686
aI8
asS'04000901'
p35
(lp36
F-0.05510259135170887
aI3
asS'04000900'
p37
(lp38
F0.1494608712903813
aI1
asS'08010200'
p39
(lp40
F0.01810193028043007
aI5
asS'04010100'
p41
(lp42
F0.5108636874038551
aI3
asS'04010101'
p43
(lp44
F-0.00530785201035984
aI4
asS'09010900'
p45
(lp46
F0.005166923453535603
aI5
asS'08020800'
p47
(lp48
F-0.03242895978270435
aI6
asS'05030001'
p49
(lp50
F0.06385792430682785
aI10
asS'05010800'
p51
(lp52
F-0.09000520163877386
aI4
asS'02020401'
p53
(lp54
F-0.07499576839819505
aI13
asS'07011000'
p55
(lp56
F-0.04880976466471865
aI9
asS'11011000'
p57
(lp58
F-0.010263329394333054
aI1
asS'02010502'
p59
(lp60
F-0.06424890734535932
aI7
asS'06000800'
p61
(lp62
F0.020238554615602974
aI7
asS'07020200'
p63
(lp64
F-0.020515052609343713
aI8
asS'09001200'
p65
(lp66
F0.02665758568330237
aI14
asS'06010200'
p67
(lp68
F-0.08377211782289883
aI4
asS'07010800'
p69
(lp70
F0.03725065807821108
aI13
asS'08000900'
p71
(lp72
F0.005321740926125437
aI6
asS'06010300'
p73
(lp74
F0.006713997303236491
aI5
asS'11001000'
p75
(lp76
F-0.0015296224647529354
aI13
asS'06020300'
p77
(lp78
F0.039985016878668234
aI5
asS'08010800'
p79
(lp80
F0.032620554181458906
aI9
asS'06010101'
p81
(lp82
F0.011136444842690874
aI16
asS'02030401'
p83
(lp84
F0.09929246568565907
aI8
asS'01020003'
p85
(lp86
F0.05820949081152124
aI20
asS'01020002'
p87
(lp88
F0.5055248683549848
aI9
asS'01020001'
p89
(lp90
F0.07941819156814722
aI18
asS'01020000'
p91
(lp92
F-0.013240198117001112
aI1
asS'08011000'
p93
(lp94
F0.008462296801741072
aI10
asS'01020004'
p95
(lp96
F0.05089181757396388
aI8
asS'10001000'
p97
(lp98
F0.01566233443551124
aI17
asS'04010400'
p99
(lp100
F-0.10951871691549826
aI14
asS'04010403'
p101
(lp102
F0.03941121050849761
aI1
asS'02020400'
p103
(lp104
F0.023930866367253834
aI12
asS'07020800'
p105
(lp106
F0.04773175217429103
aI3
asS'09000600'
p107
(lp108
F-0.10405884951440786
aI1
asS'04010600'
p109
(lp110
F0.05983729688245544
aI5
asS'07010500'
p111
(lp112
F-0.010565888641002472
aI8
asS'03020501'
p113
(lp114
F-0.02827741890393079
aI5
asS'02010102'
p115
(lp116
F-0.08158226143822492
aI7
asS'07020600'
p117
(lp118
F-0.025381094391996897
aI10
asS'09010500'
p119
(lp120
F-0.015617062746094854
aI7
asS'12001000'
p121
(lp122
F0.02865103862144671
aI12
asS'06010601'
p123
(lp124
F0.006707308221109179
aI7
asS'02020001'
p125
(lp126
F0.8155244458578561
aI15
asS'02020002'
p127
(lp128
F0.5121128095091837
aI16
asS'06020001'
p129
(lp130
F0.0010433934393722431
aI11
asS'08010400'
p131
(lp132
F0.032561969512185526
aI5
asS'06010700'
p133
(lp134
F-0.06613261972739916
aI1
asS'06020700'
p135
(lp136
F-0.06048910293933185
aI1
asS'04010300'
p137
(lp138
F0.033870484204185154
aI7
asS'02030001'
p139
(lp140
F-0.04248009843528964
aI5
asS'00000002'
p141
(lp142
F-0.10631421254334403
aI1
asS'06010800'
p143
(lp144
F0.023607824290598725
aI8
asS'05030300'
p145
(lp146
F0.056936405745120225
aI5
asS'09001000'
p147
(lp148
F0.0020205691833242324
aI18
asS'04010200'
p149
(lp150
F0.5136933861245665
aI5
asS'03010002'
p151
(lp152
F0.07994662595520971
aI8
asS'09000900'
p153
(lp154
F-0.03879489595174543
aI14
asS'05020401'
p155
(lp156
F0.04932094180874652
aI8
asS'05020400'
p157
(lp158
F-0.01179987815333251
aI8
asS'08001200'
p159
(lp160
F-0.00924153086194561
aI4
asS'05010101'
p161
(lp162
F0.022455544206016823
aI6
asS'00000303'
p163
(lp164
F-0.06817011957221408
aI1
asS'00000802'
p165
(lp166
F0.08627206721343225
aI1
asS'04010801'
p167
(lp168
F-0.1365675253494456
aI1
asS'04010800'
p169
(lp170
F0.004434839342461264
aI3
asS'07030500'
p171
(lp172
F-0.12176810823265793
aI1
asS'08010300'
p173
(lp174
F0.06024104393694714
aI3
asS'09010700'
p175
(lp176
F0.012825160196338389
aI4
asS'09010800'
p177
(lp178
F0.021343612255804372
aI7
asS'01000901'
p179
(lp180
F-0.09459535159051546
aI3
asS'01010201'
p181
(lp182
F0.026667513238233638
aI12
asS'10010800'
p183
(lp184
F0.0021883254038930246
aI7
asS'03020601'
p185
(lp186
F-0.10082207598131106
aI13
asS'05000501'
p187
(lp188
F0.012816762706069684
aI7
asS'02010601'
p189
(lp190
F0.05974951640675372
aI3
asS'07020300'
p191
(lp192
F-0.05144920534031988
aI10
asS'10000600'
p193
(lp194
F0.04734132236977584
aI1
asS'04000501'
p195
(lp196
F-0.016888000231005614
aI6
asS'10000400'
p197
(lp198
F-0.09209861564001151
aI1
asS'08000800'
p199
(lp200
F-0.028158874722487785
aI8
asS'05010701'
p201
(lp202
F-0.0021644995563826486
aI4
asS'06010400'
p203
(lp204
F0.040013656869024486
aI9
asS'11001100'
p205
(lp206
F0.014003562079985207
aI33
asS'05000601'
p207
(lp208
F-0.04789570606105886
aI5
asS'07030100'
p209
(lp210
F0.8012447026707674
aI3
asS'08010900'
p211
(lp212
F0.0026840968271044305
aI6
asS'02020000'
p213
(lp214
F-0.05926863070927808
aI1
asS'05010600'
p215
(lp216
F0.0009010536623353814
aI3
asS'05010601'
p217
(lp218
F-0.01765577426753742
aI17
asS'09010600'
p219
(lp220
F0.028801554189724944
aI3
asS'06010600'
p221
(lp222
F-0.07818278091358294
aI13
asS'01020103'
p223
(lp224
F0.02271178735851542
aI3
asS'03020300'
p225
(lp226
F-0.027912227002090225
aI4
asS'04030001'
p227
(lp228
F0.7948188785194413
aI10
asS'05020101'
p229
(lp230
F-0.07447855557023386
aI6
asS'04010500'
p231
(lp232
F-0.0596937832402161
aI7
asS'06000700'
p233
(lp234
F-0.08302384190944585
aI8
asS'02020300'
p235
(lp236
F-0.10916558335303388
aI1
asS'07020900'
p237
(lp238
F-0.07482422418224466
aI5
asS'03010601'
p239
(lp240
F-0.05729544477586066
aI7
asS'09000700'
p241
(lp242
F-0.00428386298187837
aI7
asS'07000500'
p243
(lp244
F-0.04339032107382068
aI1
asS'08001000'
p245
(lp246
F-0.024803391218631857
aI8
asS'06030001'
p247
(lp248
F-0.07667126705020247
aI5
asS'03000901'
p249
(lp250
F-0.08570808796883055
aI3
asS'03020201'
p251
(lp252
F0.028105870450029803
aI10
asS'09020800'
p253
(lp254
F-0.041480160834291555
aI6
asS'04020301'
p255
(lp256
F0.10462268292442198
aI4
asS'04020300'
p257
(lp258
F-0.009635443378599798
aI2
asS'02010201'
p259
(lp260
F-0.047713844759968
aI2
asS'07020700'
p261
(lp262
F0.00972938345993482
aI5
asS'10000800'
p263
(lp264
F-0.00738674847316096
aI9
asS'10000700'
p265
(lp266
F-0.05775781216357094
aI2
asS'08020500'
p267
(lp268
F-0.054186620010692306
aI3
asS'07020400'
p269
(lp270
F0.000269897639176491
aI7
asS'02010302'
p271
(lp272
F-0.004425140816911238
aI6
asS'01000802'
p273
(lp274
F-0.7877739072518266
aI7
asS'12001200'
p275
(lp276
F0.01393434544882189
aI126
asS'01010401'
p277
(lp278
F-0.01415145773789589
aI1
asS'08020400'
p279
(lp280
F0.018097009138251484
aI13
asS'06020600'
p281
(lp282
F0.042793729632017975
aI8
asS'06020601'
p283
(lp284
F-0.03236755097055284
aI2
asS'05000800'
p285
(lp286
F0.03560237527658994
aI11
asS'00010303'
p287
(lp288
F-0.8005448933380273
aI17
asS'05030200'
p289
(lp290
F0.5167510200296225
aI3
asS'07001100'
p291
(lp292
F-0.04114173020563942
aI5
asS'08000600'
p293
(lp294
F-0.08762414340400197
aI4
asS'11001200'
p295
(lp296
F0.011111687562473467
aI29
asS'05020500'
p297
(lp298
F0.07910104330447157
aI9
asS'05020501'
p299
(lp300
F0.033739445277500016
aI2
asS'10010700'
p301
(lp302
F-0.026211039754291322
aI4
asS'06010201'
p303
(lp304
F0.06364984135263509
aI5
asS'07010600'
p305
(lp306
F0.0531217204747653
aI5
asS'01030000'
p307
(lp308
F-0.006719719369416399
aI1
asS'05000600'
p309
(lp310
F-0.034705791394334023
aI4
asS'05010001'
p311
(lp312
F0.45249448022055805
aI24
asS'05010002'
p313
(lp314
F0.3669338118733346
aI4
asS'06000801'
p315
(lp316
F0.055849490438232875
aI3
asS'04010501'
p317
(lp318
F0.05339190785282372
aI5
asS'04010900'
p319
(lp320
F0.0607327952345027
aI1
asS'04000701'
p321
(lp322
F0.08309182027658163
aI1
asS'01020202'
p323
(lp324
F0.013956526837110711
aI3
asS'07030400'
p325
(lp326
F0.04540216385337253
aI11
asS'01010303'
p327
(lp328
F-0.009536448833642588
aI5
asS'07010400'
p329
(lp330
F-0.011478801052885255
aI8
asS'10010900'
p331
(lp332
F-0.013934204674775047
aI7
asS'01010402'
p333
(lp334
F0.09318706008813532
aI4
asS'06001000'
p335
(lp336
F-0.005313341276321784
aI8
asS'04030000'
p337
(lp338
F-0.04624396863810931
aI1
asS'06001100'
p339
(lp340
F0.048749994522764406
aI7
asS'06000701'
p341
(lp342
F0.01610149976917276
aI3
asS'01010003'
p343
(lp344
F0.036973649744296413
aI4
asS'04020103'
p345
(lp346
F-0.020576640721806476
aI3
asS'04020102'
p347
(lp348
F-0.10202668595827998
aI4
asS'04020101'
p349
(lp350
F-0.05891362188945294
aI6
asS'04020100'
p351
(lp352
F0.8135426881538539
aI7
asS'02010003'
p353
(lp354
F0.01198216439153435
aI2
asS'02010002'
p355
(lp356
F0.11513571299176326
aI1
asS'10001200'
p357
(lp358
F0.017028614567083097
aI17
asS'02010501'
p359
(lp360
F-0.014956603452233763
aI1
asS'03010501'
p361
(lp362
F0.027474760279980904
aI7
asS'03010500'
p363
(lp364
F-0.13203510416904643
aI1
asS'03000201'
p365
(lp366
F-0.05635592530127503
aI4
asS'05030000'
p367
(lp368
F0.1455331111380527
aI1
asS'05001100'
p369
(lp370
F0.04619761385167179
aI2
asS'11000900'
p371
(lp372
F-0.0041649443787035055
aI9
asS'04001000'
p373
(lp374
F0.025146687127910683
aI1
asS'05010501'
p375
(lp376
F-0.13329104985964338
aI1
asS'05010500'
p377
(lp378
F-0.053744979522162235
aI9
asS'08000700'
p379
(lp380
F-0.018445811118660213
aI2
asS'10011000'
p381
(lp382
F-0.009593270536912217
aI10
asS'07001000'
p383
(lp384
F0.10539288622017133
aI3
asS'07030300'
p385
(lp386
F0.0811916541051216
aI5
asS'00020102'
p387
(lp388
F-0.02630307631075797
aI1
asS'01010102'
p389
(lp390
F-0.043561343612567235
aI13
asS'09020700'
p391
(lp392
F-0.0734615419607812
aI1
asS'07020000'
p393
(lp394
F-0.0854095212853438
aI1
asS'08010600'
p395
(lp396
F-0.0004694631281892212
aI10
asS'06000601'
p397
(lp398
F-0.038767972833123866
aI7
asS'05001000'
p399
(lp400
F-0.07158417301177185
aI5
asS'12000900'
p401
(lp402
F-0.0057475686539689985
aI3
asS'07000600'
p403
(lp404
F-0.048178211337877266
aI2
asS'03010001'
p405
(lp406
F0.04399434766973299
aI3
asS'06030100'
p407
(lp408
F-0.020402366269876862
aI2
asS'00020003'
p409
(lp410
F-0.017361388128874968
aI22
asS'09020900'
p411
(lp412
F-0.04818009750396375
aI3
asS'04020200'
p413
(lp414
F0.4768986403252568
aI4
asS'04020201'
p415
(lp416
F0.06741493686393911
aI5
asS'04020202'
p417
(lp418
F-0.08607302985838326
aI1
asS'04020203'
p419
(lp420
F-0.039977568206113395
aI6
asS'03020001'
p421
(lp422
F0.7832806243367065
aI15
asS'03020000'
p423
(lp424
F-0.13919332204964366
aI1
asS'03020003'
p425
(lp426
F-0.004462429236648385
aI1
asS'03020002'
p427
(lp428
F0.08855729736413807
aI9
asS'05020201'
p429
(lp430
F-0.11410177288267688
aI7
asS'05020200'
p431
(lp432
F-0.05997822387129713
aI2
asS'01010001'
p433
(lp434
F0.13240824435945928
aI1
asS'07020500'
p435
(lp436
F-0.045128708718644245
aI11
asS'01010302'
p437
(lp438
F0.10738072186408645
aI1
asS'06001200'
p439
(lp440
F0.06448816269504717
aI2
asS'05010302'
p441
(lp442
F0.1069358498384243
aI10
asS'00020000'
p443
(lp444
F-0.05231061030206459
aI1
asS'05010300'
p445
(lp446
F0.06686616812915527
aI3
asS'06020501'
p447
(lp448
F-0.025823745753396826
aI2
asS'09000800'
p449
(lp450
F0.0002957622143206669
aI10
asS'09011000'
p451
(lp452
F0.05602636654834102
aI9
asS'05000900'
p453
(lp454
F-0.028442387139381603
aI5
asS'07001200'
p455
(lp456
F-0.08077923952333725
aI3
asS'07010700'
p457
(lp458
F0.048025884585975946
aI12
asS'00010001'
p459
(lp460
F0.018131192831330134
aI1
asS'00010002'
p461
(lp462
F-0.7858367328846525
aI3
asS'04010001'
p463
(lp464
F0.1642450352249083
aI12
asS'04010000'
p465
(lp466
F0.11993284715045169
aI1
asS'06010900'
p467
(lp468
F0.05632484005758327
aI2
asS'06010301'
p469
(lp470
F0.04046774155764371
aI4
asS'06000901'
p471
(lp472
F0.0921073332649584
aI4
asS'10000900'
p473
(lp474
F0.024620247211497668
aI10
asS'08020900'
p475
(lp476
F0.0836636594685442
aI1
asS'10010600'
p477
(lp478
F-0.0026284890637230107
aI3
asS'09010400'
p479
(lp480
F0.059457977406516704
aI3
asS'08020700'
p481
(lp482
F-0.05070657289758922
aI14
asS'08010500'
p483
(lp484
F0.06034831578901438
aI17
asS'05000700'
p485
(lp486
F-0.04465414933747558
aI11
asS'05010700'
p487
(lp488
F-0.018746088802727184
aI3
asS'02010401'
p489
(lp490
F-0.047124388311693355
aI5
asS'06000900'
p491
(lp492
F0.012721819554756292
aI2
asS'03030001'
p493
(lp494
F0.022048963397977385
aI10
asS'03030002'
p495
(lp496
F-0.03191768351223216
aI7
asS'07010900'
p497
(lp498
F-0.11404797565478406
aI8
asS'08010100'
p499
(lp500
F-0.10244028467807656
aI1
asS'04020104'
p501
(lp502
F0.06246414864672957
aI2
asS'04010002'
p503
(lp504
F0.08785307549041185
aI1
asS'02010001'
p505
(lp506
F0.6158122985907335
aI12
asS'07000800'
p507
(lp508
F0.005604930926784175
aI7
asS'07000900'
p509
(lp510
F-0.06640779275120075
aI4
asS'08020300'
p511
(lp512
F-0.05378374286918284
aI4
asS'02000901'
p513
(lp514
F-0.021131841246195167
aI5
asS'04020002'
p515
(lp516
F0.49753647313798666
aI8
asS'04020003'
p517
(lp518
F-0.11333811015220718
aI12
asS'04020000'
p519
(lp520
F-0.06560749088065121
aI1
asS'04020001'
p521
(lp522
F0.7930538624807189
aI24
asS'10001100'
p523
(lp524
F0.00010837401631107191
aI30
asS'04010700'
p525
(lp526
F0.006392333916175424
aI7
asS'04010701'
p527
(lp528
F-0.0036450356081074954
aI6
asS'10000500'
p529
(lp530
F0.04617209363666873
aI4
asS'03010400'
p531
(lp532
F0.07308881623440572
aI4
asS'03010401'
p533
(lp534
F-0.028035220945507255
aI2
asS'03000301'
p535
(lp536
F0.012479999504749295
aI9
asS'00030001'
p537
(lp538
F0.8103767737910166
aI3
asS'00030000'
p539
(lp540
F0.07747935093731115
aI1
asS'03010800'
p541
(lp542
F0.0592418304287356
aI1
asS'06030200'
p543
(lp544
F-0.07609504488325905
aI1
asS'05010400'
p545
(lp546
F0.008080524290585776
aI3
asS'08020200'
p547
(lp548
F-0.1494351801742506
aI1
asS'05010402'
p549
(lp550
F-0.10671358836190106
aI3
asS'02010202'
p551
(lp552
F-0.016050770581737674
aI5
asS'03020401'
p553
(lp554
F-0.07316783652588234
aI3
asS'03020400'
p555
(lp556
F-0.024884631408059923
aI5
asS'07030200'
p557
(lp558
F0.006005122143864929
aI7
asS'00020002'
p559
(lp560
F0.06596321490802244
aI16
asS'01020301'
p561
(lp562
F0.03544540406642828
aI13
asS'05010502'
p563
(lp564
F0.0668677596874351
aI4
asS'00020001'
p565
(lp566
F0.7934100329302385
aI23
asS'07020100'
p567
(lp568
F-0.013355919960991666
aI8
asS'07020101'
p569
(lp570
F-0.07151861050857425
aI3
asS'08010700'
p571
(lp572
F0.030320273061358677
aI7
asS'12001100'
p573
(lp574
F0.015724726950128647
aI31
asS'06010500'
p575
(lp576
F0.029585058983761077
aI8
asS'02000201'
p577
(lp578
F-0.08330882198420743
aI8
asS'06020101'
p579
(lp580
F-0.09573102401909603
aI4
asS'06020100'
p581
(lp582
F-0.0701304671525187
aI2
asS'07000700'
p583
(lp584
F-0.011445846181464901
aI4
asS'05000901'
p585
(lp586
F-0.09248245253898192
aI3
asS'01010502'
p587
(lp588
F0.06614534149555486
aI6
asS'04010601'
p589
(lp590
F-0.017596108765419977
aI8
asS'05030100'
p591
(lp592
F0.5187200095284865
aI2
as.