(dp0
S'07040002'
p1
(lp2
F0.09352417950063921
aI28
asS'07040001'
p3
(lp4
F-0.01621313971779872
aI90
asS'07040000'
p5
(lp6
F-0.04635704890185087
aI1
asS'11000700'
p7
(lp8
F0.06686702597762462
aI189
asS'00010900'
p9
(lp10
F-0.5252322656613885
aI3
asS'00010901'
p11
(lp12
F0.2943679641735302
aI13
asS'00010902'
p13
(lp14
F0.5069385928171807
aI35
asS'00010903'
p15
(lp16
F-0.05418363154922546
aI19
asS'04030601'
p17
(lp18
F0.04174142473256183
aI4
asS'04030600'
p19
(lp20
F0.0803496543181891
aI7
asS'07020202'
p21
(lp22
F0.07972804044475339
aI8
asS'07020201'
p23
(lp24
F0.3721320982004658
aI124
asS'07020200'
p25
(lp26
F0.09851800789811492
aI432
asS'00030504'
p27
(lp28
F0.0196599668473962
aI34
asS'00030502'
p29
(lp30
F-0.04789629214849567
aI67
asS'00030503'
p31
(lp32
F-0.09954869582513896
aI24
asS'00030501'
p33
(lp34
F0.0063152422469958756
aI30
asS'09000601'
p35
(lp36
F0.015735740347379103
aI5
asS'09000600'
p37
(lp38
F0.13496796206964165
aI539
asS'04040101'
p39
(lp40
F0.3993206561312112
aI67
asS'04040100'
p41
(lp42
F0.4744514170115096
aI6
asS'04040103'
p43
(lp44
F0.0699507223508493
aI4
asS'04040102'
p45
(lp46
F0.03880021489189994
aI32
asS'05040300'
p47
(lp48
F0.03369555769884535
aI2
asS'05040301'
p49
(lp50
F-0.021063389250767645
aI10
asS'07030101'
p51
(lp52
F-0.007643211189809585
aI101
asS'07030100'
p53
(lp54
F0.8131922503691569
aI163
asS'11010400'
p55
(lp56
F0.10491302767876196
aI55
asS'09010501'
p57
(lp58
F0.037656154246935566
aI22
asS'09010500'
p59
(lp60
F0.16087567205815617
aI544
asS'02020000'
p61
(lp62
F-0.08388098298816635
aI1
asS'02020001'
p63
(lp64
F0.490007199540172
aI1576
asS'02020002'
p65
(lp66
F0.256079661238106
aI925
asS'02020003'
p67
(lp68
F0.35778801425225154
aI473
asS'02020004'
p69
(lp70
F0.08852378855900081
aI205
asS'02020005'
p71
(lp72
F-0.059195133674430106
aI68
asS'08030300'
p73
(lp74
F0.6483229274370614
aI195
asS'08030301'
p75
(lp76
F0.24871281019730768
aI7
asS'11000901'
p77
(lp78
F0.03041570459804823
aI4
asS'11000900'
p79
(lp80
F0.021002418875839497
aI1069
asS'04010203'
p81
(lp82
F-0.045414266590367076
aI65
asS'04010202'
p83
(lp84
F0.374271233591055
aI198
asS'04010201'
p85
(lp86
F0.18475549421551238
aI404
asS'04010200'
p87
(lp88
F0.22100599200519244
aI303
asS'05050000'
p89
(lp90
F0.07805615468411711
aI1
asS'05050001'
p91
(lp92
F0.3242628183063909
aI9
asS'02060000'
p93
(lp94
F0.1140852152710706
aI1
asS'02060001'
p95
(lp96
F0.7970073382279926
aI9
asS'02060002'
p97
(lp98
F-0.03960508048608394
aI16
asS'01000604'
p99
(lp100
F-0.38364585949442354
aI27
asS'01000603'
p101
(lp102
F0.2154063298713404
aI160
asS'01000602'
p103
(lp104
F-0.30767560369358693
aI504
asS'01000601'
p105
(lp106
F-0.8124909309733797
aI488
asS'01000600'
p107
(lp108
F-0.17654911922023336
aI156
asS'08000800'
p109
(lp110
F0.052926413758677196
aI1333
asS'08000801'
p111
(lp112
F0.01846390607368162
aI179
asS'08000802'
p113
(lp114
F0.009689449632273663
aI2
asS'10020900'
p115
(lp116
F0.043696628480155854
aI139
asS'03010600'
p117
(lp118
F0.0844909943522871
aI390
asS'03010601'
p119
(lp120
F-0.013983958749477367
aI510
asS'03010602'
p121
(lp122
F-0.2401211667821701
aI362
asS'03010603'
p123
(lp124
F-0.048987599292609665
aI83
asS'09020801'
p125
(lp126
F0.0376635863549167
aI10
asS'09020800'
p127
(lp128
F0.09230621329540573
aI231
asS'02010300'
p129
(lp130
F-0.14072593122885854
aI265
asS'02010301'
p131
(lp132
F0.21946057532648197
aI393
asS'02010302'
p133
(lp134
F0.008176469192020877
aI432
asS'02010303'
p135
(lp136
F0.024885353835986838
aI248
asS'02010304'
p137
(lp138
F-0.06614290677128369
aI78
asS'02010305'
p139
(lp140
F0.041354282999876174
aI60
asS'08020400'
p141
(lp142
F0.20395687250308622
aI492
asS'08020401'
p143
(lp144
F0.09786472351990935
aI46
asS'05020103'
p145
(lp146
F-0.013862471989675912
aI27
asS'06001100'
p147
(lp148
F-0.061703424991397665
aI1031
asS'06001101'
p149
(lp150
F-0.031099058832296165
aI359
asS'00020103'
p151
(lp152
F-0.4761694357887971
aI894
asS'00020102'
p153
(lp154
F0.3924575515292874
aI730
asS'00020101'
p155
(lp156
F0.45566802447535026
aI497
asS'00020100'
p157
(lp158
F0.6293235225044999
aI27
asS'00020107'
p159
(lp160
F-0.5611001063368375
aI84
asS'00020106'
p161
(lp162
F-0.5925793147770306
aI245
asS'00020105'
p163
(lp164
F-0.5923712213821124
aI654
asS'00020104'
p165
(lp166
F-0.3333886184220177
aI861
asS'00020108'
p167
(lp168
F0.03126361715039247
aI43
asS'03020001'
p169
(lp170
F0.4048768854672882
aI1597
asS'03020000'
p171
(lp172
F0.03458374943656542
aI1
asS'03020003'
p173
(lp174
F0.26914488356072663
aI328
asS'03020002'
p175
(lp176
F0.19389668535827115
aI745
asS'03020005'
p177
(lp178
F0.11668718420392746
aI3
asS'03020004'
p179
(lp180
F0.08865816119783296
aI103
asS'01010303'
p181
(lp182
F-0.3754563633821729
aI570
asS'01010302'
p183
(lp184
F-0.24562171694850451
aI575
asS'01010301'
p185
(lp186
F-0.20779738307906725
aI424
asS'01010300'
p187
(lp188
F-0.18404125123439696
aI100
asS'01010306'
p189
(lp190
F-0.19048523083018126
aI62
asS'01010305'
p191
(lp192
F-0.23715947733476966
aI259
asS'01010304'
p193
(lp194
F-0.19755429094808258
aI279
asS'06020501'
p195
(lp196
F0.0580410042535499
aI154
asS'06020500'
p197
(lp198
F0.12943928261332896
aI404
asS'06020502'
p199
(lp200
F0.010414143982549869
aI11
asS'05000900'
p201
(lp202
F-0.18048235228317352
aI1090
asS'05000901'
p203
(lp204
F-0.05651502855794066
aI750
asS'05000902'
p205
(lp206
F-0.05385885873773744
aI180
asS'05000903'
p207
(lp208
F-0.015767968017261345
aI8
asS'00010001'
p209
(lp210
F0.7857483855047694
aI2730
asS'00010000'
p211
(lp212
F-0.04271689323962646
aI1
asS'00010003'
p213
(lp214
F0.2719272722831334
aI2806
asS'00010002'
p215
(lp216
F0.5122387529598752
aI2708
asS'00010005'
p217
(lp218
F-0.8127494982193072
aI1918
asS'00010004'
p219
(lp220
F-0.8018735778972821
aI2791
asS'00010007'
p221
(lp222
F-0.7782978920932522
aI401
asS'00010006'
p223
(lp224
F-0.8058388032582192
aI1000
asS'04000004'
p225
(lp226
F0.18439950669562444
aI13
asS'04000000'
p227
(lp228
F0.14186410902913762
aI1
asS'04000001'
p229
(lp230
F0.3690549945501539
aI228
asS'04000002'
p231
(lp232
F0.41754268361358754
aI48
asS'04000003'
p233
(lp234
F0.1764213500468823
aI9
asS'03000604'
p235
(lp236
F-0.014589196509293523
aI1
asS'03000601'
p237
(lp238
F-0.087477723866314
aI506
asS'03000600'
p239
(lp240
F-0.07693061179464258
aI409
asS'03000603'
p241
(lp242
F-0.2474301287010366
aI55
asS'03000602'
p243
(lp244
F-0.12094236124280522
aI337
asS'10010800'
p245
(lp246
F-0.024825307625002034
aI1072
asS'10010801'
p247
(lp248
F-0.011352554372862603
aI4
asS'08011101'
p249
(lp250
F0.0032160954449490936
aI7
asS'08011100'
p251
(lp252
F-0.014813635521742165
aI143
asS'06000502'
p253
(lp254
F-0.03623821222200746
aI1
asS'06000501'
p255
(lp256
F0.05729090837199591
aI119
asS'06000500'
p257
(lp258
F0.0574449964978782
aI459
asS'07000300'
p259
(lp260
F0.07945763079968812
aI173
asS'07000301'
p261
(lp262
F0.0879533586463087
aI42
asS'04020802'
p263
(lp264
F0.12997124555074616
aI1
asS'04020800'
p265
(lp266
F-0.03192308603621712
aI15
asS'04020801'
p267
(lp268
F-0.026136100728801345
aI12
asS'07001200'
p269
(lp270
F-0.0806724214676327
aI747
asS'06030601'
p271
(lp272
F-0.07487705360482574
aI2
asS'06030600'
p273
(lp274
F0.007401424687993381
aI15
asS'07010402'
p275
(lp276
F-0.01950188302570513
aI6
asS'07010400'
p277
(lp278
F0.3159779111611559
aI685
asS'07010401'
p279
(lp280
F0.14472520612383785
aI102
asS'05000001'
p281
(lp282
F0.5455181226827126
aI150
asS'05000000'
p283
(lp284
F-0.05880938226333389
aI1
asS'05000002'
p285
(lp286
F0.21538180835235135
aI34
asS'08010201'
p287
(lp288
F0.25561804545370875
aI28
asS'08010200'
p289
(lp290
F0.4967589881125956
aI395
asS'05020700'
p291
(lp292
F0.0844434665020174
aI62
asS'05020701'
p293
(lp294
F0.018435262166402146
aI83
asS'05020702'
p295
(lp296
F-0.00959069759135138
aI31
asS'03000803'
p297
(lp298
F-0.10257583974663012
aI105
asS'03000802'
p299
(lp300
F-0.17760690919285282
aI409
asS'03000801'
p301
(lp302
F-0.3341476331048561
aI662
asS'03000800'
p303
(lp304
F-0.1305113730509574
aI516
asS'06010201'
p305
(lp306
F0.4259734712650005
aI204
asS'06010200'
p307
(lp308
F0.808185775541622
aI422
asS'06010202'
p309
(lp310
F0.10174054943582975
aI15
asS'08000101'
p311
(lp312
F0.2703025770596972
aI2
asS'08000100'
p313
(lp314
F0.16893551152621003
aI54
asS'05030200'
p315
(lp316
F0.6331278627077277
aI101
asS'07001100'
p317
(lp318
F-0.012665794386807126
aI1883
asS'07040100'
p319
(lp320
F0.7981343633814812
aI25
asS'07040101'
p321
(lp322
F0.5301046069706069
aI7
asS'11000600'
p323
(lp324
F0.15353209259899678
aI138
asS'00040303'
p325
(lp326
F-0.05772954318883215
aI20
asS'00040302'
p327
(lp328
F0.002291918689003791
aI15
asS'07030102'
p329
(lp330
F0.2872289499159445
aI20
asS'01020704'
p331
(lp332
F-0.02946051439304309
aI4
asS'01011002'
p333
(lp334
F-0.3308139484279841
aI33
asS'07020302'
p335
(lp336
F0.047349756293252804
aI11
asS'07020300'
p337
(lp338
F0.3134495574349913
aI481
asS'07020301'
p339
(lp340
F0.20010980035549114
aI118
asS'06040301'
p341
(lp342
F0.02318990172148013
aI6
asS'01010900'
p343
(lp344
F-0.1012922133686589
aI18
asS'00030601'
p345
(lp346
F-0.061997892717618235
aI3
asS'00030603'
p347
(lp348
F0.0030507559565047223
aI25
asS'00030602'
p349
(lp350
F-0.1166741522290723
aI20
asS'08040300'
p351
(lp352
F0.07790419608520491
aI8
asS'09000702'
p353
(lp354
F-0.13677037435973677
aI1
asS'09000700'
p355
(lp356
F0.03887281451315159
aI809
asS'09000701'
p357
(lp358
F0.011912952775270862
aI24
asS'04040000'
p359
(lp360
F-0.07436385321092216
aI1
asS'04040001'
p361
(lp362
F0.5220975355110169
aI277
asS'04040002'
p363
(lp364
F0.5859611982885875
aI189
asS'04040003'
p365
(lp366
F0.26677846896957336
aI46
asS'05040001'
p367
(lp368
F0.7885712073015095
aI167
asS'05040000'
p369
(lp370
F-0.09581729163061686
aI1
asS'05040002'
p371
(lp372
F0.3686442655363915
aI96
asS'07030000'
p373
(lp374
F-0.1019779991016305
aI1
asS'07030001'
p375
(lp376
F0.8144111547263851
aI241
asS'11010500'
p377
(lp378
F0.1832846975948148
aI98
asS'09010400'
p379
(lp380
F0.4213356428701787
aI443
asS'09010401'
p381
(lp382
F-0.017345755670219516
aI2
asS'02040301'
p383
(lp384
F-0.02095023467069866
aI19
asS'04010304'
p385
(lp386
F0.0669124145441351
aI1
asS'04010305'
p387
(lp388
F-0.08898512450797778
aI5
asS'04010302'
p389
(lp390
F-0.07092213108648973
aI215
asS'04010303'
p391
(lp392
F0.041544811351861353
aI59
asS'04010300'
p393
(lp394
F0.18347263143457626
aI435
asS'04010301'
p395
(lp396
F0.1593568507011185
aI394
asS'01030002'
p397
(lp398
F0.5294251117879849
aI947
asS'01030003'
p399
(lp400
F0.4216152388959227
aI416
asS'01030000'
p401
(lp402
F-0.006777295244442372
aI1
asS'01030001'
p403
(lp404
F0.8106085651784819
aI1402
asS'01030006'
p405
(lp406
F-0.03598185402649739
aI7
asS'01030004'
p407
(lp408
F-0.19742889824718807
aI188
asS'01030005'
p409
(lp410
F-0.21424433437377233
aI54
asS'04010206'
p411
(lp412
F-0.005213202024752103
aI5
asS'04010204'
p413
(lp414
F-0.025492596988778017
aI9
asS'01000704'
p415
(lp416
F0.018353632939017733
aI19
asS'01000702'
p417
(lp418
F-0.29025700470349713
aI492
asS'01000703'
p419
(lp420
F-0.018768837607783695
aI185
asS'01000700'
p421
(lp422
F-0.5991393558827642
aI129
asS'01000701'
p423
(lp424
F-0.646045919913976
aI520
asS'00010208'
p425
(lp426
F-0.6850639785590649
aI52
asS'03010103'
p427
(lp428
F0.21132422001588996
aI235
asS'03010102'
p429
(lp430
F0.19722984588749037
aI341
asS'03010101'
p431
(lp432
F-0.06687842492141055
aI501
asS'03010100'
p433
(lp434
F0.051038296567200186
aI136
asS'02050003'
p435
(lp436
F-0.04638047183014752
aI13
asS'02050002'
p437
(lp438
F0.5745091698265818
aI41
asS'02050001'
p439
(lp440
F0.8015201176351289
aI81
asS'03010104'
p441
(lp442
F-0.22385783550742694
aI98
asS'10020600'
p443
(lp444
F-0.016605230387344405
aI222
asS'11011100'
p445
(lp446
F0.022932598553770576
aI160
asS'09020900'
p447
(lp448
F0.04437430538421279
aI131
asS'08020701'
p449
(lp450
F0.028025082867763257
aI39
asS'08020700'
p451
(lp452
F0.051274702448623304
aI420
asS'00001002'
p453
(lp454
F0.06342836772690719
aI1
asS'00001001'
p455
(lp456
F0.05863518937753698
aI1
asS'00001000'
p457
(lp458
F-0.03871396422035868
aI1
asS'01030601'
p459
(lp460
F-0.04388533713561099
aI4
asS'01030602'
p461
(lp462
F0.010815540692386785
aI3
asS'10020400'
p463
(lp464
F0.42840947275584446
aI126
asS'00020008'
p465
(lp466
F-0.4948521999139461
aI3
asS'00020009'
p467
(lp468
F0.0859905329928087
aI7
asS'00020002'
p469
(lp470
F-0.36539199258434346
aI2576
asS'00020003'
p471
(lp472
F-0.4061789180940943
aI2152
asS'00020000'
p473
(lp474
F-0.11201089431300804
aI1
asS'00020001'
p475
(lp476
F0.7896675829786255
aI2628
asS'00020006'
p477
(lp478
F-0.5267478598771246
aI681
asS'00020007'
p479
(lp480
F-0.5126806456831512
aI17
asS'00020004'
p481
(lp482
F-0.5622326662335325
aI1042
asS'00020005'
p483
(lp484
F-0.46683814451986005
aI1012
asS'05030103'
p485
(lp486
F0.04834591499470141
aI5
asS'05030102'
p487
(lp488
F0.3730613550281058
aI126
asS'05030101'
p489
(lp490
F0.6112715122404094
aI155
asS'05030100'
p491
(lp492
F0.6300315055021145
aI100
asS'03020100'
p493
(lp494
F0.6454306194549284
aI147
asS'03020101'
p495
(lp496
F0.07555611105839855
aI538
asS'03020102'
p497
(lp498
F0.40514846245503133
aI372
asS'03020103'
p499
(lp500
F0.2688073988709109
aI213
asS'03020104'
p501
(lp502
F-0.07673114777463595
aI61
asS'03020105'
p503
(lp504
F0.005283994310202322
aI2
asS'10000200'
p505
(lp506
F0.38746101135212696
aI25
asS'06020400'
p507
(lp508
F0.41196490386786844
aI419
asS'06020401'
p509
(lp510
F0.20416587562788913
aI177
asS'06020402'
p511
(lp512
F0.12329049918193906
aI12
asS'00010100'
p513
(lp514
F0.6412498496114714
aI30
asS'00010101'
p515
(lp516
F0.5782250192054257
aI560
asS'00010102'
p517
(lp518
F0.24377487603571785
aI1224
asS'00010103'
p519
(lp520
F-0.48395076304784834
aI2147
asS'00010104'
p521
(lp522
F-0.6214107836847582
aI2249
asS'00010105'
p523
(lp524
F0.02517106636834221
aI2130
asS'00010106'
p525
(lp526
F-0.8318767680788526
aI1096
asS'00010107'
p527
(lp528
F-0.8000090377648326
aI481
asS'00010108'
p529
(lp530
F-0.7988768077789565
aI66
asS'04000703'
p531
(lp532
F-0.06887446695043689
aI46
asS'04000702'
p533
(lp534
F-0.38315287223677197
aI244
asS'04000701'
p535
(lp536
F-0.04195312339248
aI687
asS'04000700'
p537
(lp538
F0.04981246475580064
aI728
asS'03000704'
p539
(lp540
F-0.31557677286865315
aI2
asS'03000700'
p541
(lp542
F-0.36186450381796686
aI512
asS'03000701'
p543
(lp544
F-0.28788153950210715
aI667
asS'03000702'
p545
(lp546
F-0.03597402010154245
aI432
asS'03000703'
p547
(lp548
F-0.0784758656720422
aI128
asS'06010300'
p549
(lp550
F0.053051637420187175
aI502
asS'06010301'
p551
(lp552
F0.2712050303051172
aI225
asS'06010302'
p553
(lp554
F0.13569138425285843
aI21
asS'08011000'
p555
(lp556
F0.011608230071544198
aI481
asS'08011001'
p557
(lp558
F-0.005177069109961861
aI40
asS'06000402'
p559
(lp560
F-0.06528187823919576
aI8
asS'06000400'
p561
(lp562
F0.18293523397691877
aI289
asS'06000401'
p563
(lp564
F-0.02717850637060988
aI103
asS'07000402'
p565
(lp566
F0.07356283233427408
aI1
asS'07000401'
p567
(lp568
F0.052343475353134286
aI43
asS'07000400'
p569
(lp570
F0.0861698945573399
aI298
asS'01020405'
p571
(lp572
F0.025985275904113155
aI69
asS'06040100'
p573
(lp574
F0.8359317851360313
aI24
asS'08020600'
p575
(lp576
F0.05071401259858982
aI484
asS'01020402'
p577
(lp578
F-0.11950441080433966
aI308
asS'07010701'
p579
(lp580
F0.037583365206088064
aI280
asS'07010700'
p581
(lp582
F0.08821306210623414
aI1013
asS'07010702'
p583
(lp584
F0.023738298776393753
aI11
asS'05000100'
p585
(lp586
F0.1004469444578876
aI64
asS'05000101'
p587
(lp588
F0.0982311039890062
aI80
asS'05000102'
p589
(lp590
F-0.04121455275371472
aI2
asS'08010300'
p591
(lp592
F0.22118834224848638
aI544
asS'08010301'
p593
(lp594
F0.21107120808862523
aI38
asS'05010602'
p595
(lp596
F0.024524397250806726
aI118
asS'05010603'
p597
(lp598
F0.05742744704633578
aI4
asS'05010600'
p599
(lp600
F0.10967515547152715
aI638
asS'05010601'
p601
(lp602
F-0.027621378454372552
aI511
asS'08000000'
p603
(lp604
F-0.13677012318886123
aI1
asS'08000001'
p605
(lp606
F0.778555490145688
aI4
asS'09010300'
p607
(lp608
F0.16309874759815796
aI324
asS'07040201'
p609
(lp610
F-0.017396299821841262
aI4
asS'07040200'
p611
(lp612
F0.09812813233721242
aI30
asS'00040206'
p613
(lp614
F0.10576045593370693
aI5
asS'00040204'
p615
(lp616
F0.03325855725514181
aI45
asS'00040205'
p617
(lp618
F-0.016623380293915996
aI4
asS'00040202'
p619
(lp620
F-0.015275584265662001
aI17
asS'00040203'
p621
(lp622
F-0.023945155336170774
aI35
asS'09030500'
p623
(lp624
F-0.001991748130318837
aI91
asS'01050202'
p625
(lp626
F-0.07933872491880029
aI11
asS'03010604'
p627
(lp628
F-0.048165817500859215
aI21
asS'10010000'
p629
(lp630
F0.0806793852106456
aI1
asS'01030403'
p631
(lp632
F0.05255180981047648
aI20
asS'09000401'
p633
(lp634
F0.08737259574665614
aI10
asS'09000400'
p635
(lp636
F0.15974727662922614
aI190
asS'05040100'
p637
(lp638
F0.6141688555167714
aI10
asS'05040101'
p639
(lp640
F0.724962249234178
aI21
asS'05040102'
p641
(lp642
F0.39810957981036765
aI14
asS'07030700'
p643
(lp644
F0.08129092321761336
aI13
asS'11010600'
p645
(lp646
F0.19985437030425007
aI150
asS'11011000'
p647
(lp648
F0.03573617639475325
aI581
asS'02040200'
p649
(lp650
F-0.10909714134238907
aI1
asS'02040201'
p651
(lp652
F0.38201135572778255
aI9
asS'02040202'
p653
(lp654
F-0.00776129381215945
aI13
asS'02020800'
p655
(lp656
F-0.03354360762262511
aI1
asS'02020801'
p657
(lp658
F-0.12460530942762499
aI13
asS'02020802'
p659
(lp660
F0.07498710708717116
aI6
asS'03040201'
p661
(lp662
F-0.01830018083893732
aI4
asS'03040200'
p663
(lp664
F-0.13253941506548952
aI1
asS'03040202'
p665
(lp666
F0.25935151958844394
aI6
asS'03020801'
p667
(lp668
F-0.034067742302515115
aI29
asS'04010004'
p669
(lp670
F0.10827374875353542
aI36
asS'04010001'
p671
(lp672
F0.8065071111580998
aI1286
asS'04010000'
p673
(lp674
F-0.11771791900301962
aI1
asS'04010003'
p675
(lp676
F0.10743722873465489
aI188
asS'04010002'
p677
(lp678
F0.5964829137412904
aI486
asS'10000900'
p679
(lp680
F0.04440662895498332
aI1805
asS'10000901'
p681
(lp682
F-0.013746747291671219
aI10
asS'01030301'
p683
(lp684
F0.2299684308269948
aI106
asS'01030300'
p685
(lp686
F0.19761829121939753
aI10
asS'01030303'
p687
(lp688
F0.046650548132020235
aI37
asS'01030302'
p689
(lp690
F-0.09375251181296027
aI93
asS'01030304'
p691
(lp692
F-0.15037366087599183
aI7
asS'01030306'
p693
(lp694
F0.07165406454467155
aI21
asS'01011101'
p695
(lp696
F-0.09559984196458374
aI1
asS'05011002'
p697
(lp698
F-0.039165348920869356
aI19
asS'05011001'
p699
(lp700
F0.01404396336155702
aI65
asS'05011000'
p701
(lp702
F0.004868570379815229
aI154
asS'12001100'
p703
(lp704
F-0.013974115735271117
aI5293
asS'02050103'
p705
(lp706
F0.09959830299351796
aI7
asS'10020700'
p707
(lp708
F0.016008575605288025
aI234
asS'05030002'
p709
(lp710
F0.6033671077366765
aI237
asS'05030003'
p711
(lp712
F0.4270863105497218
aI70
asS'05030000'
p713
(lp714
F0.0657091924276215
aI1
asS'05030001'
p715
(lp716
F0.8269336331751806
aI812
asS'01020406'
p717
(lp718
F-0.09224464954932159
aI5
asS'06040101'
p719
(lp720
F0.651500568672728
aI29
asS'01020404'
p721
(lp722
F-0.07850381118866252
aI163
asS'01020403'
p723
(lp724
F-0.1941561909635583
aI227
asS'08020601'
p725
(lp726
F0.13250415894855222
aI20
asS'01020401'
p727
(lp728
F-0.07809989370743307
aI180
asS'01020400'
p729
(lp730
F-0.013952077010133472
aI49
asS'04010404'
p731
(lp732
F0.014977026160995322
aI2
asS'04001002'
p733
(lp734
F-0.036972882300415656
aI97
asS'04001001'
p735
(lp736
F-0.0535571563205986
aI578
asS'04001000'
p737
(lp738
F-0.26729875352630705
aI592
asS'00001100'
p739
(lp740
F-0.058721883982549086
aI1
asS'06040401'
p741
(lp742
F0.02074882126827035
aI1
asS'03000003'
p743
(lp744
F0.1758102260505883
aI41
asS'03000002'
p745
(lp746
F0.48120496503431953
aI122
asS'03000001'
p747
(lp748
F0.6226425604869706
aI183
asS'03000000'
p749
(lp750
F-0.13061351696402632
aI1
asS'03000005'
p751
(lp752
F0.05643415712669325
aI11
asS'03000004'
p753
(lp754
F0.18004611448782912
aI12
asS'07050000'
p755
(lp756
F0.1273019892114262
aI1
asS'07050001'
p757
(lp758
F0.7915646862654633
aI3
asS'05000202'
p759
(lp760
F0.18476990249042158
aI26
asS'05000201'
p761
(lp762
F0.023864503514167634
aI109
asS'00020301'
p763
(lp764
F-0.14305941770943031
aI352
asS'00020300'
p765
(lp766
F0.10569638588224436
aI28
asS'03010901'
p767
(lp768
F-0.10183952114127857
aI162
asS'00020302'
p769
(lp770
F-0.2784430005672993
aI478
asS'00020305'
p771
(lp772
F-0.4029546958664255
aI336
asS'00020304'
p773
(lp774
F-0.17269945838224024
aI429
asS'00020307'
p775
(lp776
F-0.3724883355668247
aI23
asS'00020306'
p777
(lp778
F-0.5429361095977582
aI291
asS'08030800'
p779
(lp780
F-0.039222294452089926
aI7
asS'10000300'
p781
(lp782
F0.26294076338728045
aI31
asS'03010903'
p783
(lp784
F-0.04959886045351007
aI4
asS'03010902'
p785
(lp786
F-0.0331458867567018
aI90
asS'00020303'
p787
(lp788
F-0.22594071594109724
aI566
asS'03010900'
p789
(lp790
F-0.23782654629882746
aI80
asS'04000602'
p791
(lp792
F-0.12982902817206737
aI137
asS'04000603'
p793
(lp794
F-0.06682048499271134
aI14
asS'04000600'
p795
(lp796
F0.012245438667114084
aI505
asS'04000601'
p797
(lp798
F-0.0821794470917785
aI505
asS'06010402'
p799
(lp800
F0.06800450359965075
aI21
asS'06010401'
p801
(lp802
F-0.0057564156580732564
aI217
asS'06010400'
p803
(lp804
F0.060258606438475276
aI656
asS'06000701'
p805
(lp806
F0.004229822609332218
aI423
asS'06000700'
p807
(lp808
F-0.07674405190682715
aI909
asS'06000702'
p809
(lp810
F0.025530890824697824
aI32
asS'07000502'
p811
(lp812
F0.0506575377511317
aI3
asS'07000500'
p813
(lp814
F0.13203744299989503
aI467
asS'07000501'
p815
(lp816
F0.10400219958139792
aI47
asS'00000008'
p817
(lp818
F0.040045964179855065
aI1
asS'00000009'
p819
(lp820
F0.028067516727239422
aI1
asS'09020100'
p821
(lp822
F0.8340362361015667
aI106
asS'09020101'
p823
(lp824
F0.08256580664509885
aI34
asS'11001200'
p825
(lp826
F0.0007823913954748789
aI7775
asS'01020506'
p827
(lp828
F-0.020500606016780245
aI16
asS'07010600'
p829
(lp830
F0.061701853500376394
aI990
asS'05000602'
p831
(lp832
F-0.14386544969510975
aI75
asS'05000601'
p833
(lp834
F0.04088360303854689
aI375
asS'05000600'
p835
(lp836
F0.07729411502518865
aI524
asS'08010001'
p837
(lp838
F0.543620087650949
aI77
asS'08010000'
p839
(lp840
F-0.07403505828307894
aI1
asS'08010002'
p841
(lp842
F0.11961785341102074
aI1
asS'12000400'
p843
(lp844
F-0.08328921794206047
aI1
asS'08030400'
p845
(lp846
F0.21078536749403853
aI178
asS'03000504'
p847
(lp848
F0.12780814501977875
aI1
asS'02000704'
p849
(lp850
F-0.1639036919814183
aI26
asS'02000701'
p851
(lp852
F-0.549690226327774
aI651
asS'02000700'
p853
(lp854
F-0.20262927169519487
aI299
asS'02000703'
p855
(lp856
F0.11820130781972742
aI173
asS'02000702'
p857
(lp858
F-0.8239649143495599
aI519
asS'03000502'
p859
(lp860
F-0.1212271841357003
aI197
asS'03000503'
p861
(lp862
F-0.1413873877697181
aI21
asS'00000006'
p863
(lp864
F-0.12896934630195503
aI1
asS'05010501'
p865
(lp866
F0.053812478427965306
aI464
asS'05010500'
p867
(lp868
F0.09567417131643952
aI544
asS'05010503'
p869
(lp870
F-0.0029581710530328237
aI9
asS'03000501'
p871
(lp872
F-0.005958486167758669
aI340
asS'01011100'
p873
(lp874
F-0.02076144205081376
aI2
asS'01020505'
p875
(lp876
F-0.06885533535463303
aI11
asS'07030800'
p877
(lp878
F-0.03911071419108873
aI14
asS'11010700'
p879
(lp880
F0.0832993496499123
aI254
asS'09010200'
p881
(lp882
F0.3521360116501787
aI219
asS'09010201'
p883
(lp884
F0.07709620338101915
aI8
asS'07040300'
p885
(lp886
F0.45394476212166834
aI26
asS'02010405'
p887
(lp888
F0.7913592132821232
aI19
asS'02010404'
p889
(lp890
F-0.05734618264367522
aI71
asS'02010403'
p891
(lp892
F-0.5354137651286114
aI238
asS'02010402'
p893
(lp894
F0.0026443405360357976
aI491
asS'02010401'
p895
(lp896
F-0.06989037609217771
aI497
asS'02010400'
p897
(lp898
F-0.04160885635204484
aI308
asS'09030400'
p899
(lp900
F0.4847007774037857
aI82
asS'02000903'
p901
(lp902
F-0.33328449336889093
aI29
asS'02000902'
p903
(lp904
F-0.07146289490926218
aI224
asS'02000901'
p905
(lp906
F-0.5697431681320937
aI411
asS'02000900'
p907
(lp908
F-0.5699509536928182
aI192
asS'00030003'
p909
(lp910
F-0.33757621602583593
aI864
asS'10010300'
p911
(lp912
F0.25349547455470856
aI123
asS'00030001'
p913
(lp914
F0.8336877972013246
aI1304
asS'00030000'
p915
(lp916
F0.12992180920602395
aI1
asS'00030007'
p917
(lp918
F-0.07484448755534137
aI4
asS'00030006'
p919
(lp920
F0.016701254660079767
aI3
asS'00030005'
p921
(lp922
F0.2129943811820702
aI230
asS'00030004'
p923
(lp924
F-0.37239630585473465
aI823
asS'09000500'
p925
(lp926
F0.0877846936073104
aI298
asS'09000501'
p927
(lp928
F0.1247774564439964
aI10
asS'09001101'
p929
(lp930
F0.008168553358802018
aI234
asS'09001100'
p931
(lp932
F-0.02194971586878681
aI4475
asS'03040300'
p933
(lp934
F-0.04944503247984826
aI1
asS'03040301'
p935
(lp936
F0.01074946465528269
aI7
asS'03040302'
p937
(lp938
F-0.08344454046615359
aI1
asS'04010104'
p939
(lp940
F-0.1140986049074099
aI48
asS'03020901'
p941
(lp942
F-0.015123738280757679
aI3
asS'04010100'
p943
(lp944
F0.6152034590245529
aI196
asS'04010101'
p945
(lp946
F0.15179302133917305
aI487
asS'04010102'
p947
(lp948
F0.3167213345762355
aI248
asS'04010103'
p949
(lp950
F-0.051068566563658845
aI65
asS'01030200'
p951
(lp952
F0.3527929934701638
aI8
asS'01030201'
p953
(lp954
F-0.037821020131513394
aI103
asS'01030202'
p955
(lp956
F0.25202472388942637
aI146
asS'01030203'
p957
(lp958
F0.12402961390560786
aI79
asS'01030204'
p959
(lp960
F0.02182440399646324
aI55
asS'01030205'
p961
(lp962
F-0.10201190102103198
aI26
asS'01030206'
p963
(lp964
F0.029997088302201685
aI6
asS'05020004'
p965
(lp966
F0.1118875505019659
aI4
asS'05020003'
p967
(lp968
F0.29283260165939823
aI74
asS'05020002'
p969
(lp970
F0.5976822927988934
aI320
asS'05020001'
p971
(lp972
F0.5944569455966479
aI1339
asS'05020000'
p973
(lp974
F0.08034362627466587
aI1
asS'02000304'
p975
(lp976
F-0.5616058972262505
aI9
asS'03030602'
p977
(lp978
F-0.031100993816264674
aI2
asS'03030600'
p979
(lp980
F0.06465733437986276
aI2
asS'03030601'
p981
(lp982
F0.06816716275031719
aI3
asS'12001000'
p983
(lp984
F0.0025670968419521656
aI1660
asS'02050202'
p985
(lp986
F-0.0804553394926994
aI8
asS'05030301'
p987
(lp988
F0.20215011262277352
aI73
asS'05030300'
p989
(lp990
F0.5609934358550935
aI99
asS'05030303'
p991
(lp992
F-0.002568534650035384
aI6
asS'05030302'
p993
(lp994
F0.13800614555495994
aI19
asS'06040002'
p995
(lp996
F0.055613715209868825
aI24
asS'08020102'
p997
(lp998
F0.28798050004471365
aI10
asS'08020101'
p999
(lp1000
F0.5388682636633038
aI64
asS'08020100'
p1001
(lp1002
F0.45790362160324566
aI291
asS'01020502'
p1003
(lp1004
F-0.061058811641109156
aI270
asS'01020503'
p1005
(lp1006
F-0.19632845559383938
aI225
asS'01020500'
p1007
(lp1008
F-0.0797821388731882
aI19
asS'01020501'
p1009
(lp1010
F-0.08481247475686846
aI135
asS'04010801'
p1011
(lp1012
F-0.04017832543658872
aI463
asS'04010800'
p1013
(lp1014
F-0.1485690958439933
aI392
asS'04010803'
p1015
(lp1016
F-0.0008603323314035315
aI37
asS'04010802'
p1017
(lp1018
F0.005185560160624422
aI173
asS'04001100'
p1019
(lp1020
F-0.27219427265631413
aI286
asS'04001101'
p1021
(lp1022
F-0.23095707684121589
aI143
asS'04000501'
p1023
(lp1024
F0.013439632623303707
aI341
asS'04000500'
p1025
(lp1026
F0.021254485400439033
aI327
asS'04000503'
p1027
(lp1028
F-0.023820510428304686
aI22
asS'04000502'
p1029
(lp1030
F0.024962454078770138
aI120
asS'04000504'
p1031
(lp1032
F0.12219952923612462
aI1
asS'03000102'
p1033
(lp1034
F0.1304709327314696
aI48
asS'03000103'
p1035
(lp1036
F0.13507047568342556
aI20
asS'03000100'
p1037
(lp1038
F0.37004456068287533
aI12
asS'03000101'
p1039
(lp1040
F0.457374599403412
aI93
asS'03000104'
p1041
(lp1042
F-0.13486086167078246
aI18
asS'04030004'
p1043
(lp1044
F0.2593947040208846
aI31
asS'04030003'
p1045
(lp1046
F0.18198083354228772
aI122
asS'04030002'
p1047
(lp1048
F0.4075485417309837
aI324
asS'04030001'
p1049
(lp1050
F0.5927673772586968
aI819
asS'04030000'
p1051
(lp1052
F-0.010942508725032718
aI1
asS'00020208'
p1053
(lp1054
F-0.569963533315148
aI9
asS'04020301'
p1055
(lp1056
F0.13230817163146044
aI337
asS'04020300'
p1057
(lp1058
F0.07936633291174264
aI228
asS'04020303'
p1059
(lp1060
F-0.01755112314378901
aI15
asS'04020302'
p1061
(lp1062
F0.08346199354428839
aI129
asS'03010802'
p1063
(lp1064
F-0.040502211896969356
aI205
asS'00020201'
p1065
(lp1066
F0.41676455322381456
aI232
asS'00020202'
p1067
(lp1068
F-0.36814059908555546
aI694
asS'03010801'
p1069
(lp1070
F-0.07115424200070675
aI296
asS'00020204'
p1071
(lp1072
F-0.2959484204007564
aI654
asS'00020205'
p1073
(lp1074
F-0.25688804444577973
aI441
asS'00020206'
p1075
(lp1076
F-0.38450906173277766
aI270
asS'00020207'
p1077
(lp1078
F-0.22688894878776852
aI75
asS'01000802'
p1079
(lp1080
F-0.8030843518739232
aI359
asS'01000804'
p1081
(lp1082
F-0.5821614778809233
aI17
asS'10000100'
p1083
(lp1084
F0.08619541236845324
aI18
asS'00010009'
p1085
(lp1086
F-0.7817950068946656
aI3
asS'08011200'
p1087
(lp1088
F-0.05159942353328046
aI16
asS'00010008'
p1089
(lp1090
F-0.7945010326111785
aI132
asS'06000600'
p1091
(lp1092
F0.005940415464605995
aI608
asS'06000601'
p1093
(lp1094
F0.018486584862794808
aI228
asS'06000602'
p1095
(lp1096
F0.025363640819661592
aI30
asS'07000601'
p1097
(lp1098
F0.035952314508063854
aI172
asS'07000600'
p1099
(lp1100
F0.019157369713937132
aI617
asS'07000602'
p1101
(lp1102
F0.007138109108635016
aI8
asS'09020201'
p1103
(lp1104
F0.1354466961420247
aI6
asS'09020200'
p1105
(lp1106
F0.818362847725715
aI202
asS'05000702'
p1107
(lp1108
F0.007188281759201272
aI85
asS'05000703'
p1109
(lp1110
F0.001248613573625278
aI3
asS'05000700'
p1111
(lp1112
F-0.03779425142935772
aI814
asS'05000701'
p1113
(lp1114
F-0.16820336342595177
aI563
asS'07010902'
p1115
(lp1116
F-0.0238417575133758
aI6
asS'07010901'
p1117
(lp1118
F-0.010221883325947045
aI235
asS'07010900'
p1119
(lp1120
F0.011308682481726357
aI752
asS'08010100'
p1121
(lp1122
F0.8067708071879571
aI260
asS'08010101'
p1123
(lp1124
F0.4364977895948875
aI14
asS'08010102'
p1125
(lp1126
F0.01244605311404312
aI3
asS'12000500'
p1127
(lp1128
F0.1069706866240917
aI7
asS'08030500'
p1129
(lp1130
F0.07620807588135423
aI175
asS'08030501'
p1131
(lp1132
F0.028132747539294622
aI1
asS'02000604'
p1133
(lp1134
F-0.19568735873496584
aI25
asS'02000600'
p1135
(lp1136
F-0.4090659049949181
aI335
asS'02000601'
p1137
(lp1138
F-0.24485513995632735
aI479
asS'02000602'
p1139
(lp1140
F-0.17548787278662173
aI521
asS'02000603'
p1141
(lp1142
F-0.3000566812319452
aI180
asS'05010400'
p1143
(lp1144
F0.21741110545412767
aI542
asS'05010401'
p1145
(lp1146
F0.08153057050038834
aI387
asS'05010402'
p1147
(lp1148
F-0.03472585685919397
aI69
asS'05010403'
p1149
(lp1150
F-0.06559502521289451
aI1
asS'05010404'
p1151
(lp1152
F0.007313163184453169
aI9
asS'02030302'
p1153
(lp1154
F0.1608506487997058
aI48
asS'02030303'
p1155
(lp1156
F0.057837745172021074
aI15
asS'02030300'
p1157
(lp1158
F-0.023462715546795382
aI13
asS'02030301'
p1159
(lp1160
F0.23146880696863514
aI84
asS'02000105'
p1161
(lp1162
F0.0428549922848626
aI4
asS'02030304'
p1163
(lp1164
F0.03866209510570825
aI13
asS'02030305'
p1165
(lp1166
F0.010908850425321834
aI9
asS'09010101'
p1167
(lp1168
F0.36294351262447183
aI6
asS'09010100'
p1169
(lp1170
F-0.024963481394341208
aI104
asS'11000300'
p1171
(lp1172
F0.25947580978667406
aI13
asS'06030502'
p1173
(lp1174
F0.056799041766118524
aI6
asS'01040004'
p1175
(lp1176
F-0.019920257142688774
aI1
asS'02010504'
p1177
(lp1178
F-0.05832050977546652
aI38
asS'02010502'
p1179
(lp1180
F-0.051391120304073785
aI498
asS'02010503'
p1181
(lp1182
F-0.1303321264641452
aI240
asS'01040003'
p1183
(lp1184
F0.40743832270959895
aI92
asS'01040002'
p1185
(lp1186
F0.5339597894853435
aI310
asS'06020302'
p1187
(lp1188
F0.1280662213200565
aI21
asS'06020301'
p1189
(lp1190
F0.16310151246138582
aI178
asS'06020300'
p1191
(lp1192
F0.31814981865128406
aI441
asS'07020801'
p1193
(lp1194
F0.01051141668781164
aI24
asS'07020800'
p1195
(lp1196
F0.012244504643905373
aI96
asS'00000505'
p1197
(lp1198
F0.1000696384834138
aI1
asS'00000504'
p1199
(lp1200
F-0.14490924160701818
aI1
asS'00000506'
p1201
(lp1202
F0.1079430481516733
aI1
asS'00000501'
p1203
(lp1204
F0.0433349572823718
aI1
asS'00000500'
p1205
(lp1206
F0.11532150544868572
aI1
asS'00000503'
p1207
(lp1208
F0.03319667239347654
aI1
asS'00000502'
p1209
(lp1210
F0.007963958348020383
aI1
asS'01040302'
p1211
(lp1212
F0.016275601994775124
aI16
asS'09000201'
p1213
(lp1214
F0.13503412557441538
aI3
asS'09000200'
p1215
(lp1216
F0.35508327172908316
aI57
asS'09001002'
p1217
(lp1218
F-0.06211136511663349
aI4
asS'09001000'
p1219
(lp1220
F-0.02195646676869317
aI4455
asS'09001001'
p1221
(lp1222
F0.017377227254315904
aI245
asS'02040400'
p1223
(lp1224
F-0.02949014249516431
aI3
asS'03040401'
p1225
(lp1226
F0.100585018901695
aI1
asS'03040400'
p1227
(lp1228
F-0.0679016134786242
aI15
asS'04010603'
p1229
(lp1230
F-0.01889313106625154
aI14
asS'04010602'
p1231
(lp1232
F-0.010902069743622789
aI207
asS'04010601'
p1233
(lp1234
F0.009649772085202646
aI506
asS'04010600'
p1235
(lp1236
F0.10516152380001689
aI471
asS'02020602'
p1237
(lp1238
F-0.04299677587038365
aI130
asS'02020603'
p1239
(lp1240
F-0.035255751829835244
aI36
asS'02020600'
p1241
(lp1242
F0.09331037523806508
aI10
asS'02020601'
p1243
(lp1244
F-0.04223248458877844
aI85
asS'03020604'
p1245
(lp1246
F0.05212138822213254
aI4
asS'03020603'
p1247
(lp1248
F0.004182697664548448
aI10
asS'03020602'
p1249
(lp1250
F0.005688417574003013
aI69
asS'03020601'
p1251
(lp1252
F-0.051746688384470114
aI113
asS'03020600'
p1253
(lp1254
F-0.04720455649765482
aI71
asS'02011101'
p1255
(lp1256
F-0.06230371964119409
aI3
asS'02011100'
p1257
(lp1258
F-0.07129751205528573
aI1
asS'05000603'
p1259
(lp1260
F0.024165781242471956
aI1
asS'07010601'
p1261
(lp1262
F-0.0006169576202373697
aI200
asS'07010602'
p1263
(lp1264
F0.024261502502049143
aI7
asS'05020104'
p1265
(lp1266
F0.02099780623805597
aI22
asS'05020102'
p1267
(lp1268
F0.23183076790348175
aI138
asS'05011200'
p1269
(lp1270
F-0.0023427232029706035
aI2
asS'05020100'
p1271
(lp1272
F0.9061935901989708
aI286
asS'05020101'
p1273
(lp1274
F0.5309155987668588
aI383
asS'08001002'
p1275
(lp1276
F-0.022451218337430787
aI9
asS'08001001'
p1277
(lp1278
F-0.04781565889065541
aI631
asS'08001000'
p1279
(lp1280
F0.016668278677159414
aI3140
asS'03030501'
p1281
(lp1282
F0.08056725138724394
aI7
asS'03030500'
p1283
(lp1284
F0.15659169470695838
aI16
asS'03030503'
p1285
(lp1286
F-0.017912090288201094
aI4
asS'03030502'
p1287
(lp1288
F0.009868138532503344
aI3
asS'07010202'
p1289
(lp1290
F0.2571764747726315
aI6
asS'06050001'
p1291
(lp1292
F0.7982115405498975
aI7
asS'06050000'
p1293
(lp1294
F0.031738165172767396
aI1
asS'07001101'
p1295
(lp1296
F-0.015005017104116407
aI355
asS'05030201'
p1297
(lp1298
F0.31934982090423336
aI124
asS'05030202'
p1299
(lp1300
F0.13819797209576587
aI29
asS'05030203'
p1301
(lp1302
F0.07713471218464504
aI9
asS'01010901'
p1303
(lp1304
F-0.06723324279723884
aI59
asS'06040300'
p1305
(lp1306
F0.425185904630239
aI22
asS'01010903'
p1307
(lp1308
F-0.026023994165272665
aI51
asS'01010902'
p1309
(lp1310
F-0.05384366024894274
aI73
asS'04010900'
p1311
(lp1312
F-0.03238107191088286
aI119
asS'04010901'
p1313
(lp1314
F-0.014662436804655829
aI205
asS'04010902'
p1315
(lp1316
F-0.08787282279762049
aI96
asS'04010903'
p1317
(lp1318
F-0.021048672327225466
aI4
asS'04000400'
p1319
(lp1320
F0.027687497859747043
aI257
asS'04000401'
p1321
(lp1322
F0.09272054800938274
aI246
asS'04000402'
p1323
(lp1324
F0.029368220853644912
aI87
asS'04000403'
p1325
(lp1326
F0.016719502868609668
aI12
asS'03000201'
p1327
(lp1328
F0.21425675352479684
aI71
asS'03000200'
p1329
(lp1330
F-0.19313076438305954
aI39
asS'03000203'
p1331
(lp1332
F0.021887422017506403
aI2
asS'03000202'
p1333
(lp1334
F0.09061518115665188
aI57
asS'10011001'
p1335
(lp1336
F0.07762367035157001
aI2
asS'10011000'
p1337
(lp1338
F0.023364622884227134
aI634
asS'04030104'
p1339
(lp1340
F0.06968252144559973
aI3
asS'04030102'
p1341
(lp1342
F0.19491978472301622
aI118
asS'04030103'
p1343
(lp1344
F0.1670375359609323
aI6
asS'04030100'
p1345
(lp1346
F0.648908752952182
aI74
asS'04030101'
p1347
(lp1348
F0.5641110832901681
aI171
asS'02040104'
p1349
(lp1350
F-0.016590168570416144
aI12
asS'06011200'
p1351
(lp1352
F-0.05603759579735009
aI5
asS'04020200'
p1353
(lp1354
F0.573770514604746
aI216
asS'04020201'
p1355
(lp1356
F0.11382321092635973
aI402
asS'04020202'
p1357
(lp1358
F0.16558149816488554
aI197
asS'04020203'
p1359
(lp1360
F0.09748617568273892
aI39
asS'08000900'
p1361
(lp1362
F-0.05392666029580778
aI2687
asS'08020901'
p1363
(lp1364
F0.028975132777597543
aI8
asS'08020900'
p1365
(lp1366
F0.10847862094882682
aI95
asS'00000208'
p1367
(lp1368
F-0.12176551878393382
aI1
asS'11000800'
p1369
(lp1370
F0.014333317679314202
aI501
asS'11000801'
p1371
(lp1372
F0.04073163569980515
aI2
asS'00010606'
p1373
(lp1374
F-0.011605375666746472
aI9
asS'00010605'
p1375
(lp1376
F-0.5060122096961798
aI202
asS'00010604'
p1377
(lp1378
F-0.24950406288292026
aI628
asS'00010603'
p1379
(lp1380
F-0.5733993629972096
aI1754
asS'00010602'
p1381
(lp1382
F-0.09293765932083668
aI1819
asS'00010601'
p1383
(lp1384
F-0.033047793561036626
aI713
asS'00010600'
p1385
(lp1386
F-0.02431479251057412
aI110
asS'07000700'
p1387
(lp1388
F0.027031280642332484
aI891
asS'07000701'
p1389
(lp1390
F0.011093973361192637
aI205
asS'07000702'
p1391
(lp1392
F-0.0032372921654546527
aI14
asS'09020300'
p1393
(lp1394
F0.09747317527586327
aI268
asS'09020301'
p1395
(lp1396
F-0.056800980756418616
aI6
asS'05010502'
p1397
(lp1398
F-0.003566337136127428
aI81
asS'05000401'
p1399
(lp1400
F0.04266782592013444
aI217
asS'05000400'
p1401
(lp1402
F0.13892980033601376
aI260
asS'05000403'
p1403
(lp1404
F-0.042750309904139874
aI2
asS'05000402'
p1405
(lp1406
F-0.032381685742507264
aI18
asS'07010802'
p1407
(lp1408
F-0.014258051623673738
aI7
asS'07010800'
p1409
(lp1410
F-0.051052215942910026
aI1011
asS'07010801'
p1411
(lp1412
F0.017006042017056945
aI300
asS'08010801'
p1413
(lp1414
F0.0026857925602221285
aI121
asS'08010800'
p1415
(lp1416
F-0.011274689550846498
aI1196
asS'08010802'
p1417
(lp1418
F0.08226534346112542
aI3
asS'02000103'
p1419
(lp1420
F-0.33863391498525713
aI55
asS'02000102'
p1421
(lp1422
F0.2223704360540432
aI74
asS'02000101'
p1423
(lp1424
F0.2365451174787747
aI107
asS'02000100'
p1425
(lp1426
F0.47222331050157396
aI11
asS'06040000'
p1427
(lp1428
F0.021947840419072884
aI1
asS'02000104'
p1429
(lp1430
F-0.1542554841270391
aI18
asS'00060103'
p1431
(lp1432
F-0.008625152425625797
aI6
asS'01040100'
p1433
(lp1434
F0.6292433410980601
aI4
asS'05020802'
p1435
(lp1436
F-0.010774313600766916
aI3
asS'05020801'
p1437
(lp1438
F0.004706417680151042
aI16
asS'05020800'
p1439
(lp1440
F-0.00011830210579622099
aI48
asS'01040102'
p1441
(lp1442
F0.34386153543493087
aI44
asS'01040103'
p1443
(lp1444
F0.18935642469437813
aI20
asS'02030001'
p1445
(lp1446
F0.9569334758289689
aI1197
asS'02030000'
p1447
(lp1448
F0.09971389422159782
aI1
asS'02030003'
p1449
(lp1450
F0.29591588585366463
aI273
asS'02030002'
p1451
(lp1452
F0.571706625059196
aI743
asS'02030005'
p1453
(lp1454
F0.0984511624646362
aI1
asS'02030004'
p1455
(lp1456
F0.21473903043643006
aI107
asS'08000701'
p1457
(lp1458
F-0.0007445015061581057
aI86
asS'08000700'
p1459
(lp1460
F0.033746880931982436
aI874
asS'03010002'
p1461
(lp1462
F0.4761599236402941
aI608
asS'03010003'
p1463
(lp1464
F0.32130170989414175
aI322
asS'03010000'
p1465
(lp1466
F0.10835121607058437
aI1
asS'03010001'
p1467
(lp1468
F0.5979253694031879
aI1306
asS'03010004'
p1469
(lp1470
F-0.10532818284344697
aI100
asS'03010005'
p1471
(lp1472
F0.031144272592458243
aI31
asS'09010000'
p1473
(lp1474
F-0.048474743148778296
aI1
asS'09010001'
p1475
(lp1476
F0.6142992430390497
aI17
asS'06030700'
p1477
(lp1478
F0.0018803231779876955
aI3
asS'11000200'
p1479
(lp1480
F-0.06444408185418019
aI1
asS'01010202'
p1481
(lp1482
F-0.2650220963385951
aI559
asS'01010203'
p1483
(lp1484
F-0.30683999818377156
aI508
asS'01010200'
p1485
(lp1486
F0.06960283907486078
aI49
asS'01010201'
p1487
(lp1488
F0.16209361868575622
aI438
asS'01010206'
p1489
(lp1490
F-0.3233165889309566
aI128
asS'01010204'
p1491
(lp1492
F-0.32888672981726647
aI322
asS'01010205'
p1493
(lp1494
F-0.5352025834019281
aI267
asS'02010604'
p1495
(lp1496
F-0.3959231820910024
aI30
asS'02010601'
p1497
(lp1498
F-0.054288447570562275
aI519
asS'02010600'
p1499
(lp1500
F-0.16487202682258192
aI288
asS'02010603'
p1501
(lp1502
F-0.1132218334215694
aI214
asS'02010602'
p1503
(lp1504
F-0.20749011331632167
aI479
asS'02011000'
p1505
(lp1506
F-0.02042015044629429
aI24
asS'02011001'
p1507
(lp1508
F-0.006019733379182893
aI62
asS'02011002'
p1509
(lp1510
F-0.12933013582623384
aI7
asS'10000400'
p1511
(lp1512
F0.38692344516423094
aI101
asS'06020202'
p1513
(lp1514
F0.3057920621335211
aI29
asS'06020200'
p1515
(lp1516
F0.18322578260987987
aI423
asS'06020201'
p1517
(lp1518
F0.309746927364946
aI191
asS'03000902'
p1519
(lp1520
F0.01653012750738329
aI288
asS'03000903'
p1521
(lp1522
F-0.20080049323397225
aI34
asS'03000900'
p1523
(lp1524
F-0.30758273643422424
aI495
asS'03000901'
p1525
(lp1526
F-0.36122602142590177
aI576
asS'07020900'
p1527
(lp1528
F0.012434995472381773
aI35
asS'07020901'
p1529
(lp1530
F-0.04394616367202857
aI3
asS'00000404'
p1531
(lp1532
F0.11171860857331842
aI1
asS'00000405'
p1533
(lp1534
F-0.12857168757190027
aI1
asS'00000406'
p1535
(lp1536
F0.10504300061870878
aI1
asS'00000407'
p1537
(lp1538
F0.01990936128429391
aI1
asS'00000400'
p1539
(lp1540
F0.10565208875345752
aI1
asS'00000401'
p1541
(lp1542
F-0.08470838678593286
aI1
asS'00000402'
p1543
(lp1544
F0.005564998098454926
aI1
asS'00000403'
p1545
(lp1546
F0.021183836177769644
aI1
asS'12001200'
p1547
(lp1548
F-0.0033438399296968624
aI27761
asS'03040500'
p1549
(lp1550
F0.04472126103271625
aI5
asS'01001101'
p1551
(lp1552
F-0.49765814547227677
aI5
asS'01001100'
p1553
(lp1554
F-0.05187716209326167
aI5
asS'03020702'
p1555
(lp1556
F0.003524435552550702
aI23
asS'03020703'
p1557
(lp1558
F0.012470632435671373
aI22
asS'03020700'
p1559
(lp1560
F-0.0099886203606845
aI17
asS'03020701'
p1561
(lp1562
F0.014643323471604458
aI31
asS'10001200'
p1563
(lp1564
F0.003231679580830449
aI4254
asS'07020001'
p1565
(lp1566
F0.8295256383487387
aI520
asS'07020000'
p1567
(lp1568
F0.019555069418347393
aI1
asS'07020002'
p1569
(lp1570
F0.3443478275014697
aI69
asS'03030400'
p1571
(lp1572
F0.2929915336083665
aI12
asS'03030401'
p1573
(lp1574
F0.10595337131041854
aI41
asS'03030402'
p1575
(lp1576
F0.0919151681225958
aI13
asS'03030403'
p1577
(lp1578
F0.08443152270819326
aI6
asS'03050002'
p1579
(lp1580
F0.5190471310659323
aI25
asS'03000804'
p1581
(lp1582
F-0.01097026338394343
aI6
asS'04020503'
p1583
(lp1584
F0.021335675916725867
aI19
asS'04020502'
p1585
(lp1586
F0.05585547257349279
aI104
asS'04020501'
p1587
(lp1588
F0.012615525941812752
aI211
asS'04020500'
p1589
(lp1590
F0.19410204951797125
aI169
asS'00030306'
p1591
(lp1592
F-0.34846096489358214
aI28
asS'05030502'
p1593
(lp1594
F0.08295451969100785
aI4
asS'05030501'
p1595
(lp1596
F0.018497513543132248
aI16
asS'05030500'
p1597
(lp1598
F0.17420711088676646
aI11
asS'07001000'
p1599
(lp1600
F-0.03882718513581551
aI2383
asS'07001001'
p1601
(lp1602
F-0.08360601122466305
aI693
asS'07001002'
p1603
(lp1604
F-0.013167279346468483
aI38
asS'01010800'
p1605
(lp1606
F-0.1435294982038643
aI61
asS'01010801'
p1607
(lp1608
F-0.15006667180740424
aI164
asS'01010802'
p1609
(lp1610
F-0.13592267448837636
aI284
asS'01010803'
p1611
(lp1612
F0.002891743514290307
aI142
asS'01010804'
p1613
(lp1614
F-0.08577743121711272
aI18
asS'07040400'
p1615
(lp1616
F0.006985123927696169
aI28
asS'03000300'
p1617
(lp1618
F-0.08223721161434373
aI148
asS'03000301'
p1619
(lp1620
F-0.1284773917316281
aI170
asS'03000302'
p1621
(lp1622
F0.0375559003621372
aI108
asS'03000303'
p1623
(lp1624
F-0.053560849333667816
aI11
asS'10011100'
p1625
(lp1626
F0.016480109520079562
aI153
asS'01010501'
p1627
(lp1628
F-0.13108905408160584
aI545
asS'04030201'
p1629
(lp1630
F0.08151945015201034
aI125
asS'04030200'
p1631
(lp1632
F0.4334420839418327
aI74
asS'04030203'
p1633
(lp1634
F0.05648078148578321
aI6
asS'04030202'
p1635
(lp1636
F0.06473745224716745
aI40
asS'04050001'
p1637
(lp1638
F0.797278236003727
aI20
asS'04050000'
p1639
(lp1640
F-0.043252778474882
aI1
asS'04050002'
p1641
(lp1642
F0.11283034649196969
aI9
asS'06011101'
p1643
(lp1644
F-0.04895010405755555
aI3
asS'06011100'
p1645
(lp1646
F-0.04534000415156598
aI33
asS'04010005'
p1647
(lp1648
F-0.0063214422546007554
aI8
asS'08040400'
p1649
(lp1650
F-0.041082262462823795
aI11
asS'09010901'
p1651
(lp1652
F0.021019637041641184
aI36
asS'09010900'
p1653
(lp1654
F0.03324382334603989
aI1185
asS'08020800'
p1655
(lp1656
F0.03463342413104949
aI182
asS'08020801'
p1657
(lp1658
F0.02338964304114299
aI15
asS'03060002'
p1659
(lp1660
F0.09892075991524207
aI2
asS'00010704'
p1661
(lp1662
F-0.5114183446582342
aI238
asS'00010705'
p1663
(lp1664
F-0.08654660578514255
aI27
asS'00010702'
p1665
(lp1666
F-0.20215771325955317
aI1209
asS'00010703'
p1667
(lp1668
F0.5902361380668135
aI588
asS'00010700'
p1669
(lp1670
F-0.06291945108470845
aI49
asS'00010701'
p1671
(lp1672
F-0.15015881074077006
aI519
asS'01030503'
p1673
(lp1674
F0.05335431171519732
aI28
asS'01030502'
p1675
(lp1676
F-0.0463496799192467
aI19
asS'01030501'
p1677
(lp1678
F0.035518999118639254
aI18
asS'01000405'
p1679
(lp1680
F-0.2862642755918373
aI12
asS'01000404'
p1681
(lp1682
F-0.7992449343064527
aI15
asS'01000406'
p1683
(lp1684
F-0.6081523323052518
aI4
asS'01000401'
p1685
(lp1686
F-0.9630189367501426
aI198
asS'01000400'
p1687
(lp1688
F-0.12218830299753068
aI28
asS'01000403'
p1689
(lp1690
F-0.45493903796722446
aI58
asS'01000402'
p1691
(lp1692
F-0.36070354286515305
aI204
asS'11010800'
p1693
(lp1694
F0.04670038563777616
aI444
asS'05000500'
p1695
(lp1696
F-0.0965616000734418
aI396
asS'05000501'
p1697
(lp1698
F-0.018540593242390123
aI305
asS'05000502'
p1699
(lp1700
F-0.08962535253468554
aI71
asS'05000503'
p1701
(lp1702
F-0.03346090082618937
aI3
asS'02010704'
p1703
(lp1704
F-0.388618202073172
aI31
asS'02010700'
p1705
(lp1706
F-0.05310969519462905
aI162
asS'02010701'
p1707
(lp1708
F-0.2542977312746694
aI363
asS'02010702'
p1709
(lp1710
F-0.1782581451401914
aI470
asS'02010703'
p1711
(lp1712
F-0.1831245338099387
aI163
asS'07010102'
p1713
(lp1714
F0.24596264547209265
aI12
asS'07010101'
p1715
(lp1716
F0.27217725731414905
aI119
asS'07010100'
p1717
(lp1718
F0.8168607709203236
aI308
asS'08010900'
p1719
(lp1720
F0.031986765721767965
aI1100
asS'08010901'
p1721
(lp1722
F0.006785401997884357
aI101
asS'02000002'
p1723
(lp1724
F0.31258208663655795
aI160
asS'02000003'
p1725
(lp1726
F0.11626770973846005
aI115
asS'02000000'
p1727
(lp1728
F-0.14225165039177093
aI1
asS'02000001'
p1729
(lp1730
F0.936292679780546
aI223
asS'02000004'
p1731
(lp1732
F0.14194571235139913
aI33
asS'02000005'
p1733
(lp1734
F-0.4674952191890591
aI19
asS'00060004'
p1735
(lp1736
F-0.036712505237243655
aI4
asS'00060002'
p1737
(lp1738
F0.0030902835449210034
aI9
asS'00060003'
p1739
(lp1740
F-0.04735750923170368
aI13
asS'00060000'
p1741
(lp1742
F0.044991498060616
aI1
asS'00060001'
p1743
(lp1744
F0.821803510020245
aI25
asS'05020900'
p1745
(lp1746
F-0.016501103586711415
aI7
asS'01060000'
p1747
(lp1748
F-0.11966597334056442
aI1
asS'07050100'
p1749
(lp1750
F-0.00013045586631652006
aI1
asS'06010002'
p1751
(lp1752
F0.2788848749951412
aI172
asS'02030100'
p1753
(lp1754
F0.33638569063289503
aI46
asS'02030101'
p1755
(lp1756
F0.4023826038293607
aI245
asS'02030102'
p1757
(lp1758
F0.341937474964176
aI231
asS'02030103'
p1759
(lp1760
F-0.029762797401066077
aI142
asS'02030104'
p1761
(lp1762
F-0.010075491085336369
aI18
asS'08000600'
p1763
(lp1764
F0.13012828612663768
aI560
asS'08000601'
p1765
(lp1766
F0.044095926070173846
aI35
asS'03010301'
p1767
(lp1768
F0.09771924564485511
aI430
asS'03010300'
p1769
(lp1770
F0.1259823280437789
aI349
asS'03010303'
p1771
(lp1772
F0.029440305422721396
aI77
asS'03010302'
p1773
(lp1774
F0.02328210270305904
aI297
asS'03010304'
p1775
(lp1776
F-0.08420787947182312
aI24
asS'07011200'
p1777
(lp1778
F-0.03240265965914687
aI4
asS'06030401'
p1779
(lp1780
F0.16379121697801155
aI16
asS'06030400'
p1781
(lp1782
F0.06640874869523766
aI117
asS'06030402'
p1783
(lp1784
F-0.05571957488381468
aI2
asS'01010101'
p1785
(lp1786
F0.41819865157887226
aI473
asS'01010100'
p1787
(lp1788
F-0.008009805485626353
aI18
asS'01010103'
p1789
(lp1790
F-0.4431754109681924
aI556
asS'01010102'
p1791
(lp1792
F-0.22992336880955686
aI587
asS'01010105'
p1793
(lp1794
F-0.32123347659962476
aI307
asS'01010104'
p1795
(lp1796
F-0.5525382279698121
aI524
asS'01010107'
p1797
(lp1798
F-0.5805787608982165
aI22
asS'01010106'
p1799
(lp1800
F-0.44805375874643477
aI106
asS'10000500'
p1801
(lp1802
F0.1220217858854328
aI162
asS'10000501'
p1803
(lp1804
F0.013839499852888942
aI4
asS'00000303'
p1805
(lp1806
F-0.1262800893661791
aI1
asS'00000302'
p1807
(lp1808
F0.12487580717456873
aI1
asS'00000301'
p1809
(lp1810
F0.07655224330416638
aI1
asS'00000300'
p1811
(lp1812
F0.06611259713857129
aI1
asS'00000307'
p1813
(lp1814
F-0.1455429194242873
aI1
asS'00000306'
p1815
(lp1816
F0.009226801401011453
aI1
asS'00000305'
p1817
(lp1818
F0.134927921737
aI1
asS'00000304'
p1819
(lp1820
F-0.129726085108216
aI1
asS'06000101'
p1821
(lp1822
F0.19772148607659437
aI30
asS'06000100'
p1823
(lp1824
F0.8354638806976548
aI47
asS'01001002'
p1825
(lp1826
F-0.08867924620761725
aI9
asS'01001000'
p1827
(lp1828
F-0.167553787940659
aI23
asS'01001001'
p1829
(lp1830
F-0.397554331387744
aI44
asS'00040105'
p1831
(lp1832
F0.056508007714223055
aI22
asS'00040104'
p1833
(lp1834
F-0.1433584286115984
aI14
asS'00040106'
p1835
(lp1836
F0.06397835147361342
aI17
asS'00040101'
p1837
(lp1838
F0.002418411922017971
aI35
asS'00040103'
p1839
(lp1840
F-0.0032569776522001796
aI71
asS'00040102'
p1841
(lp1842
F0.007263110997095867
aI29
asS'10001101'
p1843
(lp1844
F0.03393517079386708
aI80
asS'10001100'
p1845
(lp1846
F-0.017627462700734585
aI6085
asS'07020100'
p1847
(lp1848
F0.8148446046079485
aI349
asS'07020101'
p1849
(lp1850
F0.47055285259466517
aI155
asS'07020102'
p1851
(lp1852
F0.09345817584852549
aI30
asS'07020103'
p1853
(lp1854
F0.005928249871791504
aI5
asS'03030303'
p1855
(lp1856
F0.011381018010429905
aI16
asS'03030302'
p1857
(lp1858
F0.10129256005559471
aI49
asS'03030301'
p1859
(lp1860
F0.21364902725328566
aI68
asS'03030300'
p1861
(lp1862
F0.27369262563623487
aI40
asS'03030304'
p1863
(lp1864
F0.035822625328105914
aI3
asS'06011000'
p1865
(lp1866
F-0.004874497143476845
aI215
asS'06011001'
p1867
(lp1868
F-0.04480162633214059
aI73
asS'04020402'
p1869
(lp1870
F0.07885559458943418
aI127
asS'04020403'
p1871
(lp1872
F0.0054422625396975
aI16
asS'04020400'
p1873
(lp1874
F0.10426862702911155
aI225
asS'04020401'
p1875
(lp1876
F0.025253483097644594
aI298
asS'03020800'
p1877
(lp1878
F-0.032298457526514564
aI2
asS'07030600'
p1879
(lp1880
F0.04075187801928012
aI39
asS'07030601'
p1881
(lp1882
F0.09223209723678372
aI2
asS'02020405'
p1883
(lp1884
F-0.08662665805429462
aI7
asS'07040500'
p1885
(lp1886
F0.006795186671325187
aI9
asS'08040000'
p1887
(lp1888
F-0.12889487251724183
aI1
asS'08040001'
p1889
(lp1890
F-0.04470138981292286
aI3
asS'04030300'
p1891
(lp1892
F0.308314865202116
aI63
asS'04030301'
p1893
(lp1894
F0.2176324507348946
aI55
asS'04030302'
p1895
(lp1896
F0.07495806336360594
aI39
asS'04030303'
p1897
(lp1898
F-0.09308044048797742
aI1
asS'00000900'
p1899
(lp1900
F0.137506736081529
aI1
asS'00020506'
p1901
(lp1902
F-0.3870936900501839
aI80
asS'00020505'
p1903
(lp1904
F-0.3442773205243309
aI106
asS'00020504'
p1905
(lp1906
F-0.25891812868654873
aI288
asS'00020503'
p1907
(lp1908
F-0.17205323849334628
aI410
asS'00020502'
p1909
(lp1910
F-0.14010805046666386
aI241
asS'00020501'
p1911
(lp1912
F-0.09576169772784891
aI157
asS'00020500'
p1913
(lp1914
F-0.1007919179092703
aI26
asS'09010800'
p1915
(lp1916
F0.03526161378819849
aI1184
asS'09010801'
p1917
(lp1918
F0.04563348436123524
aI34
asS'02020402'
p1919
(lp1920
F-0.12930626089378017
aI225
asS'04010105'
p1921
(lp1922
F0.042298259180630265
aI2
asS'00010405'
p1923
(lp1924
F-0.5254759269552348
aI1250
asS'00010404'
p1925
(lp1926
F-0.5003334124022042
aI1774
asS'00010407'
p1927
(lp1928
F-0.5085239735668248
aI62
asS'00010406'
p1929
(lp1930
F-0.36669702420135103
aI381
asS'00010401'
p1931
(lp1932
F-0.28673010250582553
aI811
asS'00010400'
p1933
(lp1934
F-0.2675191931739272
aI71
asS'00010403'
p1935
(lp1936
F-0.2397778518820878
aI2035
asS'00010402'
p1937
(lp1938
F-0.3360182645132935
aI1890
asS'01030405'
p1939
(lp1940
F0.010575533414885263
aI1
asS'01030402'
p1941
(lp1942
F-0.04792757456605033
aI37
asS'02020701'
p1943
(lp1944
F-0.05598730349516618
aI36
asS'01030400'
p1945
(lp1946
F-0.04410230477149901
aI4
asS'01030401'
p1947
(lp1948
F0.2970165370772193
aI36
asS'02020700'
p1949
(lp1950
F-0.06554624332618347
aI5
asS'01000504'
p1951
(lp1952
F-0.641224428123152
aI14
asS'01000505'
p1953
(lp1954
F-0.4705819688560577
aI4
asS'01000500'
p1955
(lp1956
F-0.7909325727668033
aI112
asS'01000501'
p1957
(lp1958
F-0.8031167068069138
aI330
asS'01000502'
p1959
(lp1960
F-0.04633770199412601
aI380
asS'01000503'
p1961
(lp1962
F-0.27408419235572085
aI101
asS'11010900'
p1963
(lp1964
F0.0228236722369587
aI590
asS'01010000'
p1965
(lp1966
F0.05041025492092899
aI1
asS'01010001'
p1967
(lp1968
F-0.545361532935554
aI1261
asS'01010002'
p1969
(lp1970
F0.4243354242582342
aI910
asS'01010003'
p1971
(lp1972
F0.1956989787183227
aI746
asS'01010004'
p1973
(lp1974
F0.013463726748354776
aI479
asS'01010005'
p1975
(lp1976
F-0.5781588240956517
aI416
asS'01010006'
p1977
(lp1978
F-0.4904498504566402
aI17
asS'01010007'
p1979
(lp1980
F-0.5621929240832408
aI31
asS'02010003'
p1981
(lp1982
F0.21904544527499734
aI439
asS'02010002'
p1983
(lp1984
F0.5611744132087488
aI803
asS'02010001'
p1985
(lp1986
F0.4744033893657225
aI1290
asS'02010000'
p1987
(lp1988
F0.08462206192191327
aI1
asS'02010006'
p1989
(lp1990
F0.00011214203641007892
aI12
asS'02010005'
p1991
(lp1992
F-0.42650097889554295
aI41
asS'02010004'
p1993
(lp1994
F0.05391462392352786
aI334
asS'07010002'
p1995
(lp1996
F0.15545980815624352
aI40
asS'07010003'
p1997
(lp1998
F0.2699847161939934
aI4
asS'07010000'
p1999
(lp2000
F0.0059330464506017755
aI1
asS'07010001'
p2001
(lp2002
F0.5102178582099929
aI460
asS'02000301'
p2003
(lp2004
F0.0673600033411372
aI133
asS'02000300'
p2005
(lp2006
F-0.19313856370363697
aI74
asS'02000303'
p2007
(lp2008
F-0.13117024149153414
aI45
asS'02000302'
p2009
(lp2010
F-0.1126868103952535
aI110
asS'02000305'
p2011
(lp2012
F0.039404297445324706
aI8
asS'08010602'
p2013
(lp2014
F0.051365089836314826
aI9
asS'08010601'
p2015
(lp2016
F0.01670998596249383
aI80
asS'08010600'
p2017
(lp2018
F0.06317242046141358
aI978
asS'06001200'
p2019
(lp2020
F-0.020543979041106816
aI358
asS'05010303'
p2021
(lp2022
F0.050224664898112545
aI13
asS'05010302'
p2023
(lp2024
F0.10191857943435564
aI92
asS'05010301'
p2025
(lp2026
F0.2829646393688592
aI378
asS'05010300'
p2027
(lp2028
F0.11188491227022271
aI479
asS'08000501'
p2029
(lp2030
F0.0453574579668777
aI12
asS'08000500'
p2031
(lp2032
F0.06655741815840123
aI407
asS'03010200'
p2033
(lp2034
F0.49437079013560903
aI271
asS'03010201'
p2035
(lp2036
F0.1565413847132926
aI412
asS'03010202'
p2037
(lp2038
F-0.06468268589694168
aI295
asS'03010203'
p2039
(lp2040
F0.05183405321071398
aI174
asS'03010204'
p2041
(lp2042
F0.06949073337504118
aI39
asS'03010205'
p2043
(lp2044
F-0.0007444560569331016
aI12
asS'03010206'
p2045
(lp2046
F0.007722626195759558
aI2
asS'06030500'
p2047
(lp2048
F0.1905526980154847
aI77
asS'06030501'
p2049
(lp2050
F0.11719183258420837
aI11
asS'00030002'
p2051
(lp2052
F0.603433812093248
aI1087
asS'07030002'
p2053
(lp2054
F0.1574961188433548
aI76
asS'08020200'
p2055
(lp2056
F0.38191835260021645
aI387
asS'08020201'
p2057
(lp2058
F0.3587779701743625
aI72
asS'08020202'
p2059
(lp2060
F0.07995364122804619
aI7
asS'06010502'
p2061
(lp2062
F0.042189594337422
aI15
asS'06040200'
p2063
(lp2064
F0.1944232267656113
aI37
asS'06010500'
p2065
(lp2066
F0.0794179790831756
aI822
asS'06010501'
p2067
(lp2068
F0.07173895513732388
aI307
asS'04000303'
p2069
(lp2070
F0.0005139246885390025
aI2
asS'04000302'
p2071
(lp2072
F0.014284445358644426
aI98
asS'04000301'
p2073
(lp2074
F0.2279023314723075
aI139
asS'04000300'
p2075
(lp2076
F0.19492806423429465
aI165
asS'00000202'
p2077
(lp2078
F0.025799656041055136
aI1
asS'00000203'
p2079
(lp2080
F0.03691263815364343
aI1
asS'00000200'
p2081
(lp2082
F0.10782782411498973
aI1
asS'00000201'
p2083
(lp2084
F0.09026824960575403
aI1
asS'00000206'
p2085
(lp2086
F0.116287132356543
aI1
asS'00000207'
p2087
(lp2088
F-0.07710313522783155
aI1
asS'00000204'
p2089
(lp2090
F-0.1318175207946782
aI1
asS'00000205'
p2091
(lp2092
F-0.06948095249809061
aI1
asS'05011100'
p2093
(lp2094
F-0.010733122965312647
aI38
asS'05011101'
p2095
(lp2096
F0.010574573984552152
aI3
asS'10010501'
p2097
(lp2098
F-0.0650101659264807
aI2
asS'10010500'
p2099
(lp2100
F0.2908528224310375
aI332
asS'06000002'
p2101
(lp2102
F0.1557526287498976
aI11
asS'02040004'
p2103
(lp2104
F0.16974524322248224
aI8
asS'06000000'
p2105
(lp2106
F0.08771522502253676
aI1
asS'06000001'
p2107
(lp2108
F0.6184636438286493
aI53
asS'00040004'
p2109
(lp2110
F0.24359452623589609
aI66
asS'00040005'
p2111
(lp2112
F-0.1381845418092159
aI31
asS'00040007'
p2113
(lp2114
F-0.030918044277738005
aI5
asS'00040000'
p2115
(lp2116
F-0.033303176686566655
aI1
asS'00040001'
p2117
(lp2118
F0.7997764206894395
aI540
asS'00040002'
p2119
(lp2120
F0.5922888458583269
aI322
asS'00040003'
p2121
(lp2122
F0.3111873682442684
aI174
asS'10001000'
p2123
(lp2124
F0.02775520535004478
aI4455
asS'10001001'
p2125
(lp2126
F0.06650795948427891
aI33
asS'09030700'
p2127
(lp2128
F-0.007997060314434506
aI11
asS'07020602'
p2129
(lp2130
F0.03367326891914005
aI6
asS'07020601'
p2131
(lp2132
F0.1018098847017477
aI93
asS'07020600'
p2133
(lp2134
F0.05134709924732396
aI397
asS'00030102'
p2135
(lp2136
F0.3585292286403942
aI310
asS'00030103'
p2137
(lp2138
F-0.22092584318470848
aI315
asS'00030100'
p2139
(lp2140
F0.664651529373115
aI17
asS'00030101'
p2141
(lp2142
F0.6118066467663864
aI215
asS'00030106'
p2143
(lp2144
F-0.21827043954432468
aI19
asS'00030104'
p2145
(lp2146
F0.20810339481628698
aI263
asS'00030105'
p2147
(lp2148
F-0.3723225531137895
aI136
asS'04020701'
p2149
(lp2150
F-0.029820412060349123
aI47
asS'04020700'
p2151
(lp2152
F-0.02247353337742551
aI14
asS'04020702'
p2153
(lp2154
F-0.015838443005679853
aI35
asS'03011001'
p2155
(lp2156
F-0.03507822210433416
aI52
asS'03011000'
p2157
(lp2158
F-0.04706248909567525
aI44
asS'03011002'
p2159
(lp2160
F-0.16229749682632588
aI8
asS'07030501'
p2161
(lp2162
F0.10310417971820698
aI10
asS'07030500'
p2163
(lp2164
F0.09401441868526927
aI121
asS'09010701'
p2165
(lp2166
F0.02472898019636518
aI20
asS'09010700'
p2167
(lp2168
F0.06855705733079852
aI1051
asS'11000501'
p2169
(lp2170
F-0.06992568334635171
aI3
asS'11000500'
p2171
(lp2172
F0.09630867257243374
aI71
asS'05001101'
p2173
(lp2174
F-0.03711669037280814
aI269
asS'05001100'
p2175
(lp2176
F-0.13504735025555728
aI661
asS'02000802'
p2177
(lp2178
F-0.08615380404046999
aI414
asS'02000803'
p2179
(lp2180
F-0.0796937611529494
aI124
asS'02000800'
p2181
(lp2182
F-0.4021206635089777
aI208
asS'02000801'
p2183
(lp2184
F-0.23668914393944876
aI548
asS'02000804'
p2185
(lp2186
F-0.012529150322577544
aI8
asS'04030403'
p2187
(lp2188
F-0.09313043522513159
aI1
asS'04030402'
p2189
(lp2190
F0.09756654614633342
aI17
asS'04030401'
p2191
(lp2192
F0.18108267242476458
aI48
asS'04030400'
p2193
(lp2194
F0.10487294527200842
aI40
asS'01000203'
p2195
(lp2196
F0.05476979635414614
aI38
asS'01000202'
p2197
(lp2198
F-0.3050455380829882
aI67
asS'01000201'
p2199
(lp2200
F-0.42499553217500297
aI68
asS'01000200'
p2201
(lp2202
F-0.05359152044067496
aI1
asS'01000206'
p2203
(lp2204
F-0.41011076223302123
aI12
asS'01000205'
p2205
(lp2206
F-0.37805859894398786
aI41
asS'01000204'
p2207
(lp2208
F-0.46968389604952127
aI52
asS'10020500'
p2209
(lp2210
F0.20520913142436908
aI187
asS'00020406'
p2211
(lp2212
F-0.2066763191893673
aI87
asS'00020407'
p2213
(lp2214
F-0.5895292692137646
aI67
asS'00020404'
p2215
(lp2216
F-0.21687175357691657
aI361
asS'00020405'
p2217
(lp2218
F-0.3364339666473594
aI280
asS'00020402'
p2219
(lp2220
F-0.12496009396899586
aI467
asS'00020403'
p2221
(lp2222
F-0.18588770021923184
aI441
asS'00020400'
p2223
(lp2224
F-0.14348381459823883
aI24
asS'00020401'
p2225
(lp2226
F-0.18290109722984865
aI279
asS'01020605'
p2227
(lp2228
F-0.019350138622388127
aI5
asS'01020604'
p2229
(lp2230
F0.03818004062555643
aI18
asS'08020000'
p2231
(lp2232
F-0.07655117154640285
aI1
asS'08020001'
p2233
(lp2234
F0.8142893851774304
aI221
asS'01020601'
p2235
(lp2236
F-0.05859586572870651
aI68
asS'01020600'
p2237
(lp2238
F-0.08814266795084258
aI2
asS'01020603'
p2239
(lp2240
F-0.05524066758037939
aI155
asS'01020602'
p2241
(lp2242
F-0.037885494613895794
aI185
asS'00010504'
p2243
(lp2244
F-0.3326523187083341
aI1473
asS'00010505'
p2245
(lp2246
F-0.786967024293192
aI743
asS'00010506'
p2247
(lp2248
F-0.5831197575217892
aI153
asS'00010507'
p2249
(lp2250
F0.03051314061443362
aI14
asS'00010500'
p2251
(lp2252
F-0.16425042327575426
aI105
asS'04001200'
p2253
(lp2254
F-0.1074120822696519
aI61
asS'00010502'
p2255
(lp2256
F-0.2948454276415551
aI1918
asS'00010503'
p2257
(lp2258
F-0.15784214492934878
aI1869
asS'06020901'
p2259
(lp2260
F-0.008716303440185319
aI4
asS'06020900'
p2261
(lp2262
F0.010910354369759538
aI18
asS'03010803'
p2263
(lp2264
F-0.056373105396368056
aI65
asS'08020002'
p2265
(lp2266
F0.5556412807650843
aI15
asS'09000801'
p2267
(lp2268
F0.06083179355262704
aI47
asS'09000800'
p2269
(lp2270
F0.060337536206234964
aI1210
asS'09000802'
p2271
(lp2272
F0.015259354390405086
aI3
asS'01020504'
p2273
(lp2274
F-0.041174073304473494
aI52
asS'06040001'
p2275
(lp2276
F0.8355684875172924
aI183
asS'07000002'
p2277
(lp2278
F0.21554995081855852
aI8
asS'07000001'
p2279
(lp2280
F0.8406221651701126
aI50
asS'07000000'
p2281
(lp2282
F0.09281728607537601
aI1
asS'06000903'
p2283
(lp2284
F0.034023338742433074
aI3
asS'06000902'
p2285
(lp2286
F-0.04749182079638523
aI66
asS'06000901'
p2287
(lp2288
F-0.12643477385789162
aI741
asS'06000900'
p2289
(lp2290
F-0.12067893802391685
aI1647
asS'01020802'
p2291
(lp2292
F-0.051703095347604006
aI15
asS'01020801'
p2293
(lp2294
F-0.0209308144719431
aI5
asS'09020401'
p2295
(lp2296
F0.043494449544877994
aI1
asS'09020400'
p2297
(lp2298
F0.2741676153557571
aI326
asS'04010702'
p2299
(lp2300
F-0.01929267320586343
aI212
asS'04010703'
p2301
(lp2302
F-0.0789999802598049
aI28
asS'04010700'
p2303
(lp2304
F-0.10862701582625639
aI457
asS'04010701'
p2305
(lp2306
F-0.009657104935202387
aI519
asS'02020501'
p2307
(lp2308
F-0.06754890501006189
aI150
asS'02020500'
p2309
(lp2310
F0.028144578213551638
aI70
asS'02020503'
p2311
(lp2312
F-0.018020154640143927
aI63
asS'02020502'
p2313
(lp2314
F0.07469344213823531
aI199
asS'07010301'
p2315
(lp2316
F0.09754198941181495
aI95
asS'07010300'
p2317
(lp2318
F0.4932533965191723
aI490
asS'07010302'
p2319
(lp2320
F0.05024343065613687
aI3
asS'02000200'
p2321
(lp2322
F0.09089299628956193
aI25
asS'02000201'
p2323
(lp2324
F-0.22539109721450934
aI87
asS'02000202'
p2325
(lp2326
F-0.23229246288312255
aI83
asS'02000203'
p2327
(lp2328
F-0.23780500961067152
aI52
asS'02000204'
p2329
(lp2330
F-0.36339817904682387
aI19
asS'02000205'
p2331
(lp2332
F-0.07263658992882739
aI2
asS'08010700'
p2333
(lp2334
F0.04129901475622887
aI1060
asS'08010701'
p2335
(lp2336
F0.017070899199603945
aI83
asS'00000101'
p2337
(lp2338
F0.02639555583056641
aI1
asS'00000103'
p2339
(lp2340
F0.06921997920142403
aI1
asS'00000102'
p2341
(lp2342
F0.04064880685308292
aI1
asS'03000403'
p2343
(lp2344
F-0.014896957604870349
aI19
asS'00000104'
p2345
(lp2346
F0.12955916839344309
aI1
asS'00000107'
p2347
(lp2348
F-0.0003559318805271272
aI1
asS'03000400'
p2349
(lp2350
F-0.2450399239093555
aI191
asS'00000108'
p2351
(lp2352
F0.0798437128802387
aI1
asS'08001100'
p2353
(lp2354
F-0.02792286274640314
aI2924
asS'08001101'
p2355
(lp2356
F-0.01628201917061392
aI363
asS'05010202'
p2357
(lp2358
F0.0016400984929517137
aI80
asS'05010203'
p2359
(lp2360
F-0.016340783829478154
aI44
asS'05010200'
p2361
(lp2362
F0.32368291628632506
aI434
asS'05010201'
p2363
(lp2364
F0.18721679583298934
aI368
asS'08000400'
p2365
(lp2366
F0.2862913101200527
aI292
asS'08000401'
p2367
(lp2368
F0.1136535191242618
aI15
asS'07011001'
p2369
(lp2370
F-0.017457054325585673
aI111
asS'07011000'
p2371
(lp2372
F-0.010856448271515575
aI356
asS'11001001'
p2373
(lp2374
F0.021174909277475534
aI1
asS'11001000'
p2375
(lp2376
F-0.009526024786613255
aI2869
asS'00010501'
p2377
(lp2378
F0.0040147060091710466
aI810
asS'08030600'
p2379
(lp2380
F0.1204523071887611
aI50
asS'06010601'
p2381
(lp2382
F-0.0026121806520632562
aI356
asS'06010600'
p2383
(lp2384
F0.009893500886069898
aI853
asS'06010602'
p2385
(lp2386
F0.04725387493656984
aI20
asS'04000202'
p2387
(lp2388
F-0.09133194547036436
aI49
asS'04000203'
p2389
(lp2390
F-0.003500004147689667
aI7
asS'04000200'
p2391
(lp2392
F0.33521132305954693
aI66
asS'04000201'
p2393
(lp2394
F0.11176145145729428
aI124
asS'02050004'
p2395
(lp2396
F-0.04388713241008191
aI17
asS'03001200'
p2397
(lp2398
F0.047820044326226156
aI14
asS'10010400'
p2399
(lp2400
F0.19697248902767012
aI213
asS'02050000'
p2401
(lp2402
F-0.01771414267161539
aI1
asS'12000800'
p2403
(lp2404
F0.07885094803624783
aI297
asS'09030600'
p2405
(lp2406
F0.03998853703887553
aI85
asS'07020700'
p2407
(lp2408
F0.0923165156765832
aI273
asS'07020701'
p2409
(lp2410
F0.062094636239582696
aI77
asS'00011002'
p2411
(lp2412
F-0.0525773634419217
aI5
asS'00030201'
p2413
(lp2414
F0.4363714940473193
aI54
asS'00030200'
p2415
(lp2416
F0.4601244893261013
aI5
asS'00030203'
p2417
(lp2418
F0.16410931959544195
aI146
asS'00030202'
p2419
(lp2420
F-0.04713271157257823
aI102
asS'00030205'
p2421
(lp2422
F-0.1769566516919509
aI96
asS'00030204'
p2423
(lp2424
F0.04228787229638102
aI116
asS'00030207'
p2425
(lp2426
F0.09651630745047932
aI7
asS'00030206'
p2427
(lp2428
F-0.20447863128682237
aI38
asS'04020600'
p2429
(lp2430
F-0.012426247121684143
aI66
asS'04020601'
p2431
(lp2432
F0.04454584816170955
aI124
asS'04020602'
p2433
(lp2434
F0.00862103886133499
aI48
asS'04020603'
p2435
(lp2436
F0.04813648185344589
aI2
asS'09000300'
p2437
(lp2438
F0.24170057073414591
aI96
asS'09000301'
p2439
(lp2440
F-0.014816488430970023
aI8
asS'03011100'
p2441
(lp2442
F-0.04347549262606845
aI10
asS'03011101'
p2443
(lp2444
F0.0027644501158283485
aI18
asS'07030400'
p2445
(lp2446
F0.06937780884911961
aI186
asS'07030401'
p2447
(lp2448
F0.05598684435314545
aI9
asS'11010100'
p2449
(lp2450
F0.11118491073127659
aI1
asS'00050001'
p2451
(lp2452
F-0.095066851675191
aI64
asS'00050000'
p2453
(lp2454
F-0.13588112842432293
aI1
asS'00050002'
p2455
(lp2456
F0.5879340377110344
aI42
asS'02020303'
p2457
(lp2458
F0.07404197259580907
aI129
asS'02020302'
p2459
(lp2460
F0.08097053868442972
aI310
asS'04010502'
p2461
(lp2462
F0.039622873039061514
aI198
asS'09010600'
p2463
(lp2464
F0.04067187672513024
aI681
asS'09010601'
p2465
(lp2466
F0.045712080689194017
aI16
asS'04010503'
p2467
(lp2468
F-0.08560599561144518
aI23
asS'11000400'
p2469
(lp2470
F0.1243809615792793
aI33
asS'05001002'
p2471
(lp2472
F-0.05983602335105473
aI101
asS'05001000'
p2473
(lp2474
F-0.03239115208275732
aI999
asS'05001001'
p2475
(lp2476
F-0.11382197369325824
aI704
asS'05020201'
p2477
(lp2478
F0.19881092313442142
aI334
asS'05020200'
p2479
(lp2480
F0.8504572644258825
aI325
asS'05020203'
p2481
(lp2482
F0.11506465296927565
aI16
asS'05020202'
p2483
(lp2484
F0.20296357948982927
aI89
asS'01000302'
p2485
(lp2486
F-0.23062559408590477
aI118
asS'01000303'
p2487
(lp2488
F-0.3704042121100103
aI44
asS'01000300'
p2489
(lp2490
F-0.3314565680231096
aI26
asS'01000301'
p2491
(lp2492
F-0.02579514335485633
aI73
asS'01000306'
p2493
(lp2494
F-0.4716058251876287
aI8
asS'01000304'
p2495
(lp2496
F-0.8334756395337357
aI17
asS'01000305'
p2497
(lp2498
F-0.796515186067633
aI6
asS'10020200'
p2499
(lp2500
F0.1115208505951822
aI72
asS'08020301'
p2501
(lp2502
F0.18379439086081165
aI38
asS'08020300'
p2503
(lp2504
F0.4716651628689269
aI448
asS'01011001'
p2505
(lp2506
F-0.14359802051377524
aI3
asS'01011000'
p2507
(lp2508
F-0.010523507174018419
aI14
asS'01020700'
p2509
(lp2510
F0.004123661657690146
aI3
asS'01020701'
p2511
(lp2512
F-0.19647565860644683
aI14
asS'01020702'
p2513
(lp2514
F-0.10791979293940714
aI51
asS'01020703'
p2515
(lp2516
F-0.010034485574326506
aI38
asS'02010803'
p2517
(lp2518
F-0.2595739499409103
aI78
asS'02010802'
p2519
(lp2520
F-0.09836890206575918
aI240
asS'02010801'
p2521
(lp2522
F-0.19212562220121832
aI236
asS'02010800'
p2523
(lp2524
F-0.17515543372944237
aI82
asS'02040103'
p2525
(lp2526
F0.23460563342600477
aI7
asS'02040102'
p2527
(lp2528
F0.4075412433986093
aI45
asS'02040101'
p2529
(lp2530
F0.13583519994322757
aI56
asS'02040100'
p2531
(lp2532
F0.6476835512783856
aI8
asS'03010800'
p2533
(lp2534
F-0.024779720583435638
aI208
asS'00020203'
p2535
(lp2536
F-0.28152309893746646
aI709
asS'00010203'
p2537
(lp2538
F-0.36272021332768295
aI1816
asS'00010202'
p2539
(lp2540
F-0.4085305298063162
aI1298
asS'00010201'
p2541
(lp2542
F-0.7624961730449022
aI347
asS'00010200'
p2543
(lp2544
F-0.5318009004775424
aI24
asS'00010207'
p2545
(lp2546
F-0.8422718994414263
aI258
asS'00010206'
p2547
(lp2548
F-0.7848913204600507
aI1634
asS'00010205'
p2549
(lp2550
F-0.6227463037265708
aI2069
asS'00010204'
p2551
(lp2552
F-0.8101831478337788
aI2177
asS'06020800'
p2553
(lp2554
F0.10871870019674698
aI22
asS'06020801'
p2555
(lp2556
F-0.017655677834584924
aI30
asS'06020802'
p2557
(lp2558
F-0.10145702755809832
aI1
asS'02001200'
p2559
(lp2560
F-0.001569601956197375
aI2
asS'01050301'
p2561
(lp2562
F-0.06790918892771282
aI4
asS'03010704'
p2563
(lp2564
F0.041993337833357576
aI4
asS'09000900'
p2565
(lp2566
F0.015325504292777362
aI2647
asS'09000901'
p2567
(lp2568
F0.01280020100436378
aI90
asS'09000902'
p2569
(lp2570
F-0.001512888938382126
aI3
asS'07000100'
p2571
(lp2572
F0.5816561589834008
aI50
asS'07000101'
p2573
(lp2574
F0.4111506032252584
aI22
asS'06000802'
p2575
(lp2576
F-0.008584756565688167
aI34
asS'06000803'
p2577
(lp2578
F0.10018072577326345
aI1
asS'06000800'
p2579
(lp2580
F-0.07299708237338823
aI1564
asS'06000801'
p2581
(lp2582
F-0.03840020794438026
aI653
asS'06040201'
p2583
(lp2584
F0.6269387609639183
aI7
asS'09020500'
p2585
(lp2586
F0.12604265374931053
aI459
asS'09020501'
p2587
(lp2588
F0.1303343837348353
aI12
asS'04010401'
p2589
(lp2590
F0.14741154195905834
aI425
asS'04010400'
p2591
(lp2592
F0.05056739274022627
aI462
asS'04010403'
p2593
(lp2594
F-0.0456474615716944
aI33
asS'04010402'
p2595
(lp2596
F-0.026407044889735186
aI179
asS'02020400'
p2597
(lp2598
F-0.00487511650649998
aI127
asS'02020401'
p2599
(lp2600
F0.11074785934398788
aI257
asS'06040400'
p2601
(lp2602
F0.21906336704294838
aI8
asS'02020403'
p2603
(lp2604
F-0.09745908549189967
aI63
asS'07010200'
p2605
(lp2606
F0.5424270008037906
aI427
asS'07010201'
p2607
(lp2608
F0.3204493543142834
aI110
asS'10021000'
p2609
(lp2610
F0.02020383644508099
aI15
asS'05000200'
p2611
(lp2612
F0.2132108301181605
aI102
asS'04011101'
p2613
(lp2614
F-0.030795434992611396
aI17
asS'04011100'
p2615
(lp2616
F-0.033269364741301745
aI27
asS'06010700'
p2617
(lp2618
F0.027812979101915006
aI844
asS'06010701'
p2619
(lp2620
F-0.0032999887648738676
aI402
asS'06010702'
p2621
(lp2622
F0.010497580613281075
aI30
asS'00000001'
p2623
(lp2624
F-0.11556368723884605
aI1
asS'00000002'
p2625
(lp2626
F-0.042838978933856076
aI1
asS'00000003'
p2627
(lp2628
F-0.11893561137090129
aI1
asS'00000004'
p2629
(lp2630
F-0.008548635137081068
aI1
asS'00000005'
p2631
(lp2632
F-0.05538234770027241
aI1
asS'03000500'
p2633
(lp2634
F-0.09088160519151892
aI284
asS'00000007'
p2635
(lp2636
F0.1494776970679936
aI1
asS'08001200'
p2637
(lp2638
F-0.0393645598518511
aI1329
asS'05010101'
p2639
(lp2640
F0.3705494190416826
aI369
asS'05010100'
p2641
(lp2642
F0.8126456466982593
aI303
asS'05010103'
p2643
(lp2644
F0.1150346352050441
aI19
asS'05010102'
p2645
(lp2646
F0.2488594530923102
aI86
asS'08000301'
p2647
(lp2648
F0.11329052439305187
aI8
asS'08000300'
p2649
(lp2650
F0.19527878433936025
aI182
asS'07011100'
p2651
(lp2652
F0.007822890828423818
aI71
asS'07011101'
p2653
(lp2654
F-0.0076156872294285
aI3
asS'11001100'
p2655
(lp2656
F0.00029362140051543417
aI7751
asS'02020504'
p2657
(lp2658
F0.02439088337381512
aI13
asS'08030700'
p2659
(lp2660
F-0.042602796020297096
aI11
asS'07020401'
p2661
(lp2662
F0.27688128501217146
aI112
asS'07020400'
p2663
(lp2664
F0.3725792752049285
aI507
asS'07020402'
p2665
(lp2666
F0.04822042539627483
aI11
asS'06040501'
p2667
(lp2668
F-0.018194354081134193
aI4
asS'03001101'
p2669
(lp2670
F-0.26665917833400155
aI83
asS'03001100'
p2671
(lp2672
F-0.38330889869169193
aI109
asS'10010701'
p2673
(lp2674
F0.07404647606074428
aI3
asS'10010700'
p2675
(lp2676
F0.028503882599370103
aI730
asS'00050101'
p2677
(lp2678
F0.055050764344297176
aI1
asS'12000900'
p2679
(lp2680
F0.019278774149143835
aI662
asS'09030101'
p2681
(lp2682
F0.6235959845844217
aI9
asS'09030100'
p2683
(lp2684
F0.5344559486497917
aI38
asS'08010702'
p2685
(lp2686
F0.03396089719635424
aI4
asS'00030300'
p2687
(lp2688
F-0.09273127067407755
aI6
asS'00030301'
p2689
(lp2690
F-0.10990001771912129
aI34
asS'00030302'
p2691
(lp2692
F-0.07933373568559406
aI65
asS'00030303'
p2693
(lp2694
F-0.1550618124786858
aI67
asS'00030304'
p2695
(lp2696
F0.030128958637828683
aI98
asS'00030305'
p2697
(lp2698
F-0.0634405129218735
aI29
asS'03050000'
p2699
(lp2700
F0.07900010747595126
aI1
asS'03050001'
p2701
(lp2702
F0.8132402532592745
aI117
asS'09000001'
p2703
(lp2704
F0.4389570205055971
aI3
asS'09000000'
p2705
(lp2706
F0.1202095153266057
aI1
asS'11010200'
p2707
(lp2708
F0.28341974376575063
aI10
asS'07000802'
p2709
(lp2710
F-0.04462181914067916
aI17
asS'07000801'
p2711
(lp2712
F0.0020427618901827068
aI396
asS'07000800'
p2713
(lp2714
F0.01965182643870983
aI1577
asS'08021000'
p2715
(lp2716
F0.10131950111128712
aI2
asS'06030202'
p2717
(lp2718
F0.355071386961727
aI6
asS'06030201'
p2719
(lp2720
F0.12423562733193583
aI88
asS'06030200'
p2721
(lp2722
F0.5490465246258932
aI155
asS'09021000'
p2723
(lp2724
F0.022642078670957383
aI10
asS'03020404'
p2725
(lp2726
F-0.049462032129528315
aI3
asS'03020401'
p2727
(lp2728
F0.11690195927752031
aI280
asS'03020400'
p2729
(lp2730
F0.22425132166420997
aI176
asS'03020403'
p2731
(lp2732
F-0.004493880027069055
aI40
asS'03020402'
p2733
(lp2734
F0.007808813489165029
aI187
asS'01010705'
p2735
(lp2736
F-0.07748701770768233
aI9
asS'01010704'
p2737
(lp2738
F0.033998544976733554
aI149
asS'01010703'
p2739
(lp2740
F-0.22360066888727614
aI518
asS'01010702'
p2741
(lp2742
F-0.11398003501206322
aI519
asS'01010701'
p2743
(lp2744
F-0.3853235656780548
aI239
asS'01010700'
p2745
(lp2746
F-0.06516014519254493
aI155
asS'06020101'
p2747
(lp2748
F0.5618480723273276
aI218
asS'06020100'
p2749
(lp2750
F0.8249646396295618
aI353
asS'06020103'
p2751
(lp2752
F-0.07376525587200446
aI7
asS'06020102'
p2753
(lp2754
F0.23666129941240885
aI42
asS'05020300'
p2755
(lp2756
F0.19556194102204788
aI357
asS'05020301'
p2757
(lp2758
F0.39003210895480916
aI285
asS'05020302'
p2759
(lp2760
F0.1794608819808755
aI78
asS'05020303'
p2761
(lp2762
F0.024215943191344416
aI9
asS'01000001'
p2763
(lp2764
F0.651533315340979
aI250
asS'01000000'
p2765
(lp2766
F0.0679657962857658
aI1
asS'01000003'
p2767
(lp2768
F-0.4753336378841593
aI121
asS'01000002'
p2769
(lp2770
F0.37814096218573734
aI136
asS'01000005'
p2771
(lp2772
F-0.6277351350151981
aI67
asS'01000004'
p2773
(lp2774
F-0.001278078326885479
aI55
asS'01000006'
p2775
(lp2776
F-0.6568607578344925
aI11
asS'00000901'
p2777
(lp2778
F-0.03916342879557712
aI1
asS'00000105'
p2779
(lp2780
F-0.06223227335560037
aI1
asS'00000903'
p2781
(lp2782
F-0.023711540267287307
aI1
asS'00000902'
p2783
(lp2784
F0.11585117838641382
aI1
asS'03000402'
p2785
(lp2786
F0.05687543289263163
aI106
asS'03000401'
p2787
(lp2788
F-0.013396047148214768
aI233
asS'00000106'
p2789
(lp2790
F-0.06798446943254863
aI1
asS'10020300'
p2791
(lp2792
F0.3221875095353385
aI81
asS'09001200'
p2793
(lp2794
F-0.0004273369748008689
aI2495
asS'05030402'
p2795
(lp2796
F0.010992923148920516
aI21
asS'05030400'
p2797
(lp2798
F0.1936947611539069
aI46
asS'05030401'
p2799
(lp2800
F-0.11011877814189892
aI55
asS'01020003'
p2801
(lp2802
F0.2609234155548839
aI639
asS'01020002'
p2803
(lp2804
F0.5650908319675532
aI1015
asS'01020001'
p2805
(lp2806
F0.4759270853095395
aI1606
asS'01020000'
p2807
(lp2808
F-0.036465584940259116
aI1
asS'01020007'
p2809
(lp2810
F-0.2532696576545923
aI5
asS'01020006'
p2811
(lp2812
F-0.46829866975048884
aI17
asS'01020005'
p2813
(lp2814
F-0.4145050976228297
aI261
asS'01020004'
p2815
(lp2816
F0.06808601600430958
aI479
asS'02010902'
p2817
(lp2818
F-0.268608725411089
aI87
asS'02010903'
p2819
(lp2820
F0.003233295221064303
aI4
asS'02010900'
p2821
(lp2822
F-0.09955324047871522
aI23
asS'02010901'
p2823
(lp2824
F-0.039674944344065086
aI98
asS'02040002'
p2825
(lp2826
F0.5677582734817356
aI206
asS'02040003'
p2827
(lp2828
F0.24797597369191363
aI76
asS'02040000'
p2829
(lp2830
F0.03934014371182118
aI1
asS'02040001'
p2831
(lp2832
F0.8088488696124388
aI342
asS'01030103'
p2833
(lp2834
F0.0632889930755052
aI176
asS'01030102'
p2835
(lp2836
F0.2400358789237002
aI303
asS'01030101'
p2837
(lp2838
F0.3926320264119513
aI381
asS'01030100'
p2839
(lp2840
F0.4546515185528255
aI27
asS'01030106'
p2841
(lp2842
F0.005590580801768233
aI13
asS'01030105'
p2843
(lp2844
F0.09954072930594077
aI13
asS'01030104'
p2845
(lp2846
F-0.07325345816317048
aI178
asS'01050103'
p2847
(lp2848
F-0.09064908003581526
aI6
asS'04040401'
p2849
(lp2850
F0.1097255568246781
aI7
asS'05040401'
p2851
(lp2852
F0.02826212220817393
aI3
asS'09020601'
p2853
(lp2854
F0.06281493518367677
aI4
asS'09020600'
p2855
(lp2856
F0.1693374089144668
aI462
asS'04010500'
p2857
(lp2858
F-0.04227862233277606
aI501
asS'04010501'
p2859
(lp2860
F0.02299747819125337
aI500
asS'02020301'
p2861
(lp2862
F-0.016395241137907902
aI360
asS'02020300'
p2863
(lp2864
F0.19895215435974842
aI114
asS'02020306'
p2865
(lp2866
F0.05857212427492098
aI2
asS'02020305'
p2867
(lp2868
F-0.0071869059694413505
aI19
asS'02020304'
p2869
(lp2870
F-0.1352117332675153
aI59
asS'07010502'
p2871
(lp2872
F0.07208331067623606
aI4
asS'07010501'
p2873
(lp2874
F0.04513676665401128
aI186
asS'07010500'
p2875
(lp2876
F0.11409860991292298
aI838
asS'05000302'
p2877
(lp2878
F0.10049548852085433
aI27
asS'05000300'
p2879
(lp2880
F0.17197094184282444
aI180
asS'05000301'
p2881
(lp2882
F0.06514028401059556
aI119
asS'06010802'
p2883
(lp2884
F0.029131871576903806
aI29
asS'06010801'
p2885
(lp2886
F-0.006457210128742926
aI432
asS'06010800'
p2887
(lp2888
F-0.019146908526596562
aI748
asS'05010004'
p2889
(lp2890
F-0.001929605302465845
aI2
asS'05010000'
p2891
(lp2892
F-0.14638776801638276
aI1
asS'05010001'
p2893
(lp2894
F0.8006598123326263
aI1077
asS'05010002'
p2895
(lp2896
F0.4140023454689044
aI310
asS'05010003'
p2897
(lp2898
F0.3320637150121825
aI41
asS'09011001'
p2899
(lp2900
F0.007697515785851584
aI11
asS'09011000'
p2901
(lp2902
F0.023001213932608136
aI619
asS'03010504'
p2903
(lp2904
F-0.18898791190105202
aI13
asS'03010503'
p2905
(lp2906
F-0.0159470463583072
aI72
asS'03010502'
p2907
(lp2908
F-0.025172607432687205
aI326
asS'03010501'
p2909
(lp2910
F-0.007559617505352325
aI551
asS'03010500'
p2911
(lp2912
F0.03449058403333142
aI386
asS'08030002'
p2913
(lp2914
F0.07399536355830738
aI8
asS'08030001'
p2915
(lp2916
F0.8258825330264034
aI70
asS'08030000'
p2917
(lp2918
F-0.04240437986150683
aI1
asS'12000600'
p2919
(lp2920
F0.1730064463431717
aI48
asS'07020500'
p2921
(lp2922
F0.07758716715775954
aI512
asS'07020501'
p2923
(lp2924
F0.056770852666240726
aI110
asS'07020502'
p2925
(lp2926
F0.034764842822642666
aI15
asS'03001000'
p2927
(lp2928
F-0.45303748492230245
aI297
asS'03001001'
p2929
(lp2930
F0.024387965169876635
aI303
asS'03001002'
p2931
(lp2932
F-0.03526382877570455
aI61
asS'05010901'
p2933
(lp2934
F-0.025540370568946473
aI228
asS'05010900'
p2935
(lp2936
F-0.05631651359104779
aI373
asS'05010902'
p2937
(lp2938
F-0.0762431104387426
aI33
asS'11010300'
p2939
(lp2940
F0.35141597643652456
aI34
asS'01020107'
p2941
(lp2942
F-0.25009810247803815
aI3
asS'07000902'
p2943
(lp2944
F0.017102997480575168
aI33
asS'01060001'
p2945
(lp2946
F0.7866457194621863
aI27
asS'07000900'
p2947
(lp2948
F-0.040667893796248564
aI2380
asS'07000901'
p2949
(lp2950
F-0.1234138448628018
aI680
asS'10010600'
p2951
(lp2952
F0.10775551901495117
aI470
asS'10010601'
p2953
(lp2954
F-0.05273668755386294
aI4
asS'03040003'
p2955
(lp2956
F0.4692991731683427
aI49
asS'03040002'
p2957
(lp2958
F0.31566544208721475
aI180
asS'03040001'
p2959
(lp2960
F0.6792282020123381
aI355
asS'03040000'
p2961
(lp2962
F0.07151474852206524
aI1
asS'09030000'
p2963
(lp2964
F-0.02496029219535953
aI1
asS'02010206'
p2965
(lp2966
F-0.4446964364838413
aI17
asS'02000505'
p2967
(lp2968
F-0.41429830062700534
aI5
asS'02000504'
p2969
(lp2970
F-0.32548068660717194
aI9
asS'02000503'
p2971
(lp2972
F-0.17028792977319998
aI50
asS'02000502'
p2973
(lp2974
F-0.30344349636716406
aI297
asS'02000501'
p2975
(lp2976
F-0.3218461066893606
aI336
asS'02000500'
p2977
(lp2978
F-0.11125032392583135
aI211
asS'09000100'
p2979
(lp2980
F0.3913678328565629
aI31
asS'10020000'
p2981
(lp2982
F-0.05649261876338961
aI1
asS'02030404'
p2983
(lp2984
F0.04502250628403059
aI7
asS'02030401'
p2985
(lp2986
F-0.025112222576379052
aI47
asS'02030400'
p2987
(lp2988
F0.1897935908778413
aI17
asS'02030403'
p2989
(lp2990
F-0.013421598039772742
aI15
asS'02030402'
p2991
(lp2992
F-0.07400603209692877
aI14
asS'01040301'
p2993
(lp2994
F0.14102415313324015
aI1
asS'00020200'
p2995
(lp2996
F0.44945284586316536
aI26
asS'06030302'
p2997
(lp2998
F0.0004658724285698107
aI4
asS'06030300'
p2999
(lp3000
F0.2723413972936278
aI151
asS'06030301'
p3001
(lp3002
F0.2206709687291996
aI57
asS'03020504'
p3003
(lp3004
F0.027627034488867882
aI13
asS'03020500'
p3005
(lp3006
F0.06871523352391253
aI122
asS'03020501'
p3007
(lp3008
F0.04430224006017827
aI212
asS'03020502'
p3009
(lp3010
F-0.039657051259013525
aI137
asS'03020503'
p3011
(lp3012
F0.037180777677496585
aI11
asS'01010606'
p3013
(lp3014
F-0.08638302127616468
aI6
asS'01010604'
p3015
(lp3016
F-0.12062393827631646
aI291
asS'01010605'
p3017
(lp3018
F-0.12823325235258773
aI29
asS'01010602'
p3019
(lp3020
F-0.2706669967188291
aI614
asS'10000600'
p3021
(lp3022
F0.1552914023806532
aI269
asS'01010600'
p3023
(lp3024
F-0.0980725635580788
aI145
asS'01010601'
p3025
(lp3026
F-0.1895504402408735
aI581
asS'05001200'
p3027
(lp3028
F-0.0668473905100806
aI138
asS'06020000'
p3029
(lp3030
F0.12694928390448887
aI1
asS'06020001'
p3031
(lp3032
F0.5464843478752558
aI807
asS'06020002'
p3033
(lp3034
F0.22481917071779162
aI220
asS'06020003'
p3035
(lp3036
F0.30487771092970356
aI34
asS'05020403'
p3037
(lp3038
F0.06344647782725088
aI9
asS'05020402'
p3039
(lp3040
F0.09760222462309914
aI50
asS'05020401'
p3041
(lp3042
F0.219601744958749
aI273
asS'05020400'
p3043
(lp3044
F0.08839022353705314
aI355
asS'01000100'
p3045
(lp3046
F0.5049164779327506
aI2
asS'01000101'
p3047
(lp3048
F-0.5142108790706704
aI70
asS'01000102'
p3049
(lp3050
F0.0841857795458455
aI78
asS'01000103'
p3051
(lp3052
F-0.4856720758819304
aI71
asS'01000104'
p3053
(lp3054
F-0.6393461104703975
aI68
asS'01000105'
p3055
(lp3056
F-0.08843944426718338
aI27
asS'01000106'
p3057
(lp3058
F0.05689622599186239
aI1
asS'01000107'
p3059
(lp3060
F-0.6366257453015632
aI7
asS'03030202'
p3061
(lp3062
F0.2752662648292039
aI71
asS'03030203'
p3063
(lp3064
F-0.01546063080590572
aI19
asS'00000802'
p3065
(lp3066
F0.017936660088795325
aI1
asS'03030201'
p3067
(lp3068
F0.19578687910470863
aI154
asS'00000804'
p3069
(lp3070
F-0.11841555925863345
aI1
asS'03030204'
p3071
(lp3072
F0.038230001148476335
aI16
asS'01050000'
p3073
(lp3074
F-0.10076307113540414
aI1
asS'01050001'
p3075
(lp3076
F0.6509997489731053
aI146
asS'01050002'
p3077
(lp3078
F0.5280190697599804
aI52
asS'01050003'
p3079
(lp3080
F0.3699099713279275
aI13
asS'01020102'
p3081
(lp3082
F0.2423912971521346
aI533
asS'01020103'
p3083
(lp3084
F0.20540777068891408
aI486
asS'01020100'
p3085
(lp3086
F0.3108594131978008
aI51
asS'01020101'
p3087
(lp3088
F0.259530417660331
aI488
asS'01020106'
p3089
(lp3090
F-0.2878651357647734
aI50
asS'08040100'
p3091
(lp3092
F0.8157271485030038
aI18
asS'01020104'
p3093
(lp3094
F-0.1619675980414333
aI367
asS'01020105'
p3095
(lp3096
F-0.315694088657127
aI207
asS'10000801'
p3097
(lp3098
F0.020481817367505623
aI4
asS'10000800'
p3099
(lp3100
F0.04475845012455988
aI956
asS'04020104'
p3101
(lp3102
F-0.02106856148616458
aI15
asS'04020103'
p3103
(lp3104
F0.07870485536779226
aI135
asS'04020102'
p3105
(lp3106
F0.1099248746825726
aI318
asS'04020101'
p3107
(lp3108
F0.5522608484745548
aI501
asS'04020100'
p3109
(lp3110
F0.8161169375619598
aI163
asS'04040301'
p3111
(lp3112
F0.020068393584734945
aI11
asS'04040300'
p3113
(lp3114
F0.06415963556909926
aI1
asS'05040501'
p3115
(lp3116
F-0.03678596762167503
aI2
asS'07030301'
p3117
(lp3118
F0.40650259656144355
aI33
asS'07030300'
p3119
(lp3120
F0.21266122442414007
aI205
asS'09020700'
p3121
(lp3122
F0.062454186443674675
aI462
asS'09020701'
p3123
(lp3124
F0.0005347672356716265
aI4
asS'02020202'
p3125
(lp3126
F0.12917817055142833
aI316
asS'02020203'
p3127
(lp3128
F0.12434509347084446
aI187
asS'02020200'
p3129
(lp3130
F0.25151673367366095
aI154
asS'02020201'
p3131
(lp3132
F-0.060398836829692513
aI365
asS'02020206'
p3133
(lp3134
F0.026204937787943576
aI16
asS'02020204'
p3135
(lp3136
F-0.09212275115865635
aI103
asS'02020205'
p3137
(lp3138
F0.05792243666214887
aI40
asS'07040600'
p3139
(lp3140
F0.010294902728364573
aI3
asS'02020703'
p3141
(lp3142
F-0.035929404179701876
aI1
asS'02001001'
p3143
(lp3144
F-0.023794599458533856
aI158
asS'02001000'
p3145
(lp3146
F-0.1901882661003379
aI107
asS'02001002'
p3147
(lp3148
F-0.09431199219214115
aI40
asS'06010902'
p3149
(lp3150
F0.041670764583378005
aI26
asS'02020702'
p3151
(lp3152
F0.013338257899569909
aI48
asS'06010900'
p3153
(lp3154
F-0.01645140049073964
aI401
asS'06010901'
p3155
(lp3156
F-0.05707777626758099
aI242
asS'05010703'
p3157
(lp3158
F0.030996606558183815
aI4
asS'05010702'
p3159
(lp3160
F-0.007936727183032847
aI132
asS'05010701'
p3161
(lp3162
F-0.07106294387215403
aI512
asS'05010700'
p3163
(lp3164
F0.04794746687022697
aI543
asS'09011100'
p3165
(lp3166
F-0.0029085837301849483
aI153
asS'03010404'
p3167
(lp3168
F-0.017831101640212704
aI19
asS'03010405'
p3169
(lp3170
F-0.12632817934888474
aI1
asS'03010402'
p3171
(lp3172
F0.02275363516989115
aI325
asS'03010403'
p3173
(lp3174
F-0.03399561177981584
aI91
asS'03010400'
p3175
(lp3176
F0.11311465965082387
aI381
asS'03010401'
p3177
(lp3178
F0.0872090907559947
aI497
asS'08040200'
p3179
(lp3180
F0.8466940271281779
aI20
asS'09030001'
p3181
(lp3182
F-0.03607539336492907
aI32
asS'08030100'
p3183
(lp3184
F0.7963080550837173
aI109
asS'08030101'
p3185
(lp3186
F0.055873475709945095
aI31
asS'09030301'
p3187
(lp3188
F-0.09159262601905367
aI4
asS'09030300'
p3189
(lp3190
F0.21791263978092346
aI76
asS'12000700'
p3191
(lp3192
F0.07754983474469726
aI118
asS'04000901'
p3193
(lp3194
F-0.1570605266798401
aI734
asS'04000900'
p3195
(lp3196
F-0.3103111831391696
aI721
asS'04000903'
p3197
(lp3198
F-0.1313893609256395
aI33
asS'04000902'
p3199
(lp3200
F-0.13503014042274164
aI299
asS'01000801'
p3201
(lp3202
F-0.09711878211417731
aI382
asS'01000800'
p3203
(lp3204
F-0.10045810249795097
aI107
asS'01000803'
p3205
(lp3206
F-0.7607436942947451
aI107
asS'10010100'
p3207
(lp3208
F0.8015726830988986
aI24
asS'05010800'
p3209
(lp3210
F-0.02339519179139171
aI542
asS'05010801'
p3211
(lp3212
F-0.0880814449833651
aI482
asS'05010802'
p3213
(lp3214
F-0.04502739370354537
aI64
asS'05010803'
p3215
(lp3216
F-0.029243056923337615
aI5
asS'04020900'
p3217
(lp3218
F-0.025144778885975112
aI8
asS'00020704'
p3219
(lp3220
F-0.043122943789664775
aI19
asS'00020701'
p3221
(lp3222
F-0.05422086270797155
aI4
asS'00020703'
p3223
(lp3224
F-0.2335998256792679
aI35
asS'00020702'
p3225
(lp3226
F-0.08272836958068519
aI50
asS'00040401'
p3227
(lp3228
F-0.017984356436487964
aI2
asS'00040402'
p3229
(lp3230
F0.1161358490773716
aI6
asS'03040102'
p3231
(lp3232
F0.11683290881939229
aI32
asS'03040100'
p3233
(lp3234
F0.20896092679082517
aI4
asS'03040101'
p3235
(lp3236
F0.42456917050603926
aI32
asS'02010102'
p3237
(lp3238
F0.3781015303768615
aI461
asS'02010103'
p3239
(lp3240
F0.13136735228095373
aI380
asS'02010100'
p3241
(lp3242
F0.4150052782443084
aI48
asS'02010101'
p3243
(lp3244
F-0.18350250029668336
aI490
asS'02010106'
p3245
(lp3246
F-0.2087294495439866
aI16
asS'02010104'
p3247
(lp3248
F0.005390660983072712
aI186
asS'02010105'
p3249
(lp3250
F-0.2946204942969849
aI40
asS'06020702'
p3251
(lp3252
F0.03658164346897981
aI10
asS'06020701'
p3253
(lp3254
F0.011249423164067306
aI81
asS'06020700'
p3255
(lp3256
F0.0860019035277778
aI108
asS'01040203'
p3257
(lp3258
F0.14280803843114356
aI10
asS'01040202'
p3259
(lp3260
F0.12955969437390966
aI1
asS'01040201'
p3261
(lp3262
F0.07811229499251544
aI6
asS'02000404'
p3263
(lp3264
F0.08297164711686095
aI1
asS'02000402'
p3265
(lp3266
F-0.14042162465798205
aI164
asS'02000403'
p3267
(lp3268
F-0.05588757784213294
aI44
asS'02000400'
p3269
(lp3270
F-0.29768971031561364
aI107
asS'02000401'
p3271
(lp3272
F0.032592973926134416
aI244
asS'06000301'
p3273
(lp3274
F0.13396468286728586
aI63
asS'06000300'
p3275
(lp3276
F0.16985183767601514
aI163
asS'06000302'
p3277
(lp3278
F-0.12569339625356085
aI1
asS'10020100'
p3279
(lp3280
F0.8057571472257044
aI23
asS'02030501'
p3281
(lp3282
F0.13423694742817702
aI7
asS'02030503'
p3283
(lp3284
F-0.0018605055318202876
aI13
asS'06030001'
p3285
(lp3286
F0.7992194750034678
aI533
asS'06030000'
p3287
(lp3288
F-0.09973407246482388
aI1
asS'06030002'
p3289
(lp3290
F0.5585879505564431
aI133
asS'03020203'
p3291
(lp3292
F0.08063697366135164
aI127
asS'03020202'
p3293
(lp3294
F0.17042021835311671
aI314
asS'03020201'
p3295
(lp3296
F0.41968423759712536
aI337
asS'03020200'
p3297
(lp3298
F0.6246416619519085
aI191
asS'03020206'
p3299
(lp3300
F-0.13181117782382368
aI1
asS'03020204'
p3301
(lp3302
F0.012950863159387607
aI25
asS'01010505'
p3303
(lp3304
F-0.20671459156045774
aI126
asS'01010504'
p3305
(lp3306
F-0.17670362996875508
aI313
asS'01010506'
p3307
(lp3308
F-0.0011822226063086805
aI3
asS'10000700'
p3309
(lp3310
F0.04030228919654194
aI510
asS'01010500'
p3311
(lp3312
F-0.1038649748018482
aI182
asS'01010503'
p3313
(lp3314
F-0.29479653967975983
aI559
asS'01010502'
p3315
(lp3316
F-0.5231675466798846
aI643
asS'08010401'
p3317
(lp3318
F0.13315161254934335
aI60
asS'08010400'
p3319
(lp3320
F0.3110164042062365
aI632
asS'05020502'
p3321
(lp3322
F0.09304455340275453
aI23
asS'05020503'
p3323
(lp3324
F0.024049300343868225
aI5
asS'05020500'
p3325
(lp3326
F0.13792090845620347
aI352
asS'05020501'
p3327
(lp3328
F0.05132140754018059
aI203
asS'03030101'
p3329
(lp3330
F0.8827619622435248
aI221
asS'03030100'
p3331
(lp3332
F0.4618664599788699
aI39
asS'03030103'
p3333
(lp3334
F0.11969367904441787
aI73
asS'03030102'
p3335
(lp3336
F0.19009554858278643
aI212
asS'06010003'
p3337
(lp3338
F-0.02106890641659237
aI1
asS'03030104'
p3339
(lp3340
F-0.08789477595351546
aI7
asS'06010001'
p3341
(lp3342
F0.478730754292684
aI695
asS'06010000'
p3343
(lp3344
F0.14934086237310437
aI1
asS'00000704'
p3345
(lp3346
F-0.0021089278576585657
aI1
asS'00000703'
p3347
(lp3348
F0.13063626155372585
aI1
asS'00000702'
p3349
(lp3350
F0.02286090113792663
aI1
asS'00000701'
p3351
(lp3352
F0.1391371973788195
aI1
asS'00000700'
p3353
(lp3354
F-0.07047457676279507
aI1
asS'01040001'
p3355
(lp3356
F0.8041415495927577
aI561
asS'01040000'
p3357
(lp3358
F-0.12341610983020457
aI1
asS'02010500'
p3359
(lp3360
F0.13447024122827123
aI288
asS'02010501'
p3361
(lp3362
F-0.06745554781702776
aI484
asS'05030600'
p3363
(lp3364
F0.008798487211909817
aI4
asS'05030601'
p3365
(lp3366
F-0.0009377688192002548
aI3
asS'01020201'
p3367
(lp3368
F-0.1252444571024371
aI342
asS'01020200'
p3369
(lp3370
F0.2635408339947469
aI63
asS'01020203'
p3371
(lp3372
F-0.18521643182657652
aI333
asS'01020202'
p3373
(lp3374
F-0.05973154465939008
aI440
asS'01020205'
p3375
(lp3376
F-0.23556047303687483
aI186
asS'01020204'
p3377
(lp3378
F-0.25827253058744326
aI247
asS'01020207'
p3379
(lp3380
F0.06905753744066676
aI16
asS'01020206'
p3381
(lp3382
F-0.2812829194115677
aI51
asS'00010801'
p3383
(lp3384
F-0.8071533830306368
aI180
asS'00010800'
p3385
(lp3386
F-0.3626348130539678
aI23
asS'00010803'
p3387
(lp3388
F-0.7999178096418482
aI160
asS'00010802'
p3389
(lp3390
F-0.40118181753533416
aI417
asS'00010804'
p3391
(lp3392
F0.38926601512773884
aI6
asS'01040101'
p3393
(lp3394
F0.0686120862354847
aI42
asS'09030800'
p3395
(lp3396
F-0.0904153980532153
aI4
asS'04030502'
p3397
(lp3398
F0.04430341144768661
aI8
asS'04030500'
p3399
(lp3400
F0.05282007573100803
aI19
asS'04030501'
p3401
(lp3402
F0.07078832003763008
aI23
asS'04020004'
p3403
(lp3404
F0.07158518567044149
aI21
asS'04020002'
p3405
(lp3406
F0.421718592354325
aI502
asS'04020003'
p3407
(lp3408
F0.2084616968439052
aI248
asS'04020000'
p3409
(lp3410
F-0.12700572391610346
aI1
asS'04020001'
p3411
(lp3412
F0.552063766006422
aI1424
asS'04040202'
p3413
(lp3414
F0.03184548693626905
aI9
asS'04040200'
p3415
(lp3416
F-0.04328048673108764
aI6
asS'04040201'
p3417
(lp3418
F0.374851503975894
aI25
asS'05040202'
p3419
(lp3420
F0.08663280829523139
aI5
asS'05040201'
p3421
(lp3422
F0.7983492943140521
aI9
asS'05040200'
p3423
(lp3424
F-0.0007145025688375384
aI9
asS'07030202'
p3425
(lp3426
F-0.14159405322469093
aI1
asS'07030200'
p3427
(lp3428
F0.4884394804034755
aI186
asS'07030201'
p3429
(lp3430
F0.23873143777382805
aI73
asS'09020002'
p3431
(lp3432
F0.2804610310624458
aI5
asS'09020001'
p3433
(lp3434
F0.510078029342873
aI39
asS'09020000'
p3435
(lp3436
F0.0782371843102336
aI1
asS'02020101'
p3437
(lp3438
F0.199478784427076
aI508
asS'02020100'
p3439
(lp3440
F0.03243186623295702
aI61
asS'02020103'
p3441
(lp3442
F-0.12197587376676419
aI274
asS'02020102'
p3443
(lp3444
F-0.16792877876770612
aI463
asS'02020105'
p3445
(lp3446
F-0.19468491968386206
aI22
asS'02020104'
p3447
(lp3448
F-0.11093664300386027
aI145
asS'02020106'
p3449
(lp3450
F-0.05027004354149851
aI15
asS'08030201'
p3451
(lp3452
F0.18415262434747892
aI10
asS'08030200'
p3453
(lp3454
F0.9059684129841912
aI157
asS'02001100'
p3455
(lp3456
F0.025133691087229848
aI39
asS'02001101'
p3457
(lp3458
F-0.5239686966902902
aI32
asS'03030004'
p3459
(lp3460
F0.22510686716268036
aI51
asS'00030405'
p3461
(lp3462
F-0.22848369506689933
aI7
asS'00030404'
p3463
(lp3464
F-0.14548100327515837
aI69
asS'00030403'
p3465
(lp3466
F-0.22982337672198389
aI56
asS'00030402'
p3467
(lp3468
F-0.08059947418713602
aI56
asS'00030401'
p3469
(lp3470
F0.12883071965205947
aI7
asS'00030400'
p3471
(lp3472
F0.003721661344699388
aI4
asS'08000901'
p3473
(lp3474
F-0.05051809512403236
aI468
asS'10010200'
p3475
(lp3476
F0.06005689197894043
aI74
asS'08000902'
p3477
(lp3478
F0.005964894380249813
aI4
asS'09011200'
p3479
(lp3480
F0.001361411484766581
aI23
asS'10020800'
p3481
(lp3482
F0.04623780129112215
aI230
asS'03010701'
p3483
(lp3484
F-0.07548661305123042
aI482
asS'03010700'
p3485
(lp3486
F-0.2231193626031361
aI347
asS'03010703'
p3487
(lp3488
F-0.03679216775634109
aI88
asS'03010702'
p3489
(lp3490
F-0.0865469513419366
aI353
asS'02020404'
p3491
(lp3492
F0.04441882750844666
aI32
asS'09030200'
p3493
(lp3494
F0.0929413963536299
aI65
asS'09030201'
p3495
(lp3496
F0.5348298507759774
aI8
asS'04000800'
p3497
(lp3498
F-0.09060382255627326
aI728
asS'04000801'
p3499
(lp3500
F-0.31897344033785924
aI748
asS'04000802'
p3501
(lp3502
F-0.19984394556086377
aI355
asS'04000803'
p3503
(lp3504
F0.026527736147565414
aI37
asS'01000900'
p3505
(lp3506
F-0.06232409790234886
aI69
asS'01000901'
p3507
(lp3508
F-0.5680937675405819
aI166
asS'01000902'
p3509
(lp3510
F0.17487202287944442
aI112
asS'01000903'
p3511
(lp3512
F-0.5504522124018849
aI25
asS'01010603'
p3513
(lp3514
F-0.15250343267925412
aI520
asS'00020604'
p3515
(lp3516
F-0.1538888168167643
aI109
asS'00020605'
p3517
(lp3518
F-0.246160498180491
aI23
asS'00020600'
p3519
(lp3520
F-0.12414645446330937
aI10
asS'00020601'
p3521
(lp3522
F-0.01170324453971577
aI20
asS'00020602'
p3523
(lp3524
F-0.12168768582899822
aI100
asS'00020603'
p3525
(lp3526
F-0.22460008628520645
aI201
asS'08000201'
p3527
(lp3528
F-0.10161502313456433
aI1
asS'02010201'
p3529
(lp3530
F0.12148732427562792
aI421
asS'02010200'
p3531
(lp3532
F0.2561246649228566
aI131
asS'02010203'
p3533
(lp3534
F0.010175990862938473
aI202
asS'02010202'
p3535
(lp3536
F0.20633470053817088
aI435
asS'02010205'
p3537
(lp3538
F-0.25929748280109344
aI71
asS'02010204'
p3539
(lp3540
F0.036837056293781145
aI181
asS'08020501'
p3541
(lp3542
F0.09485871442332117
aI35
asS'08020500'
p3543
(lp3544
F0.19138295929550442
aI488
asS'01010404'
p3545
(lp3546
F-0.21786727411981158
aI256
asS'01010405'
p3547
(lp3548
F-0.026814619891244985
aI128
asS'01010406'
p3549
(lp3550
F-0.04539659243345221
aI3
asS'10000000'
p3551
(lp3552
F-0.10194279009718754
aI1
asS'01010400'
p3553
(lp3554
F-0.20227944314776397
aI183
asS'01010401'
p3555
(lp3556
F-0.09186422043953009
aI485
asS'01010402'
p3557
(lp3558
F-0.1122259210806015
aI610
asS'01010403'
p3559
(lp3560
F-0.17857803568756825
aI571
asS'06020602'
p3561
(lp3562
F0.05492511751907214
aI3
asS'06020600'
p3563
(lp3564
F0.09401393455292177
aI264
asS'06020601'
p3565
(lp3566
F0.008478610532761062
aI151
asS'05000801'
p3567
(lp3568
F-0.26082094453613497
aI749
asS'05000800'
p3569
(lp3570
F-0.11339481066503859
aI1097
asS'05000803'
p3571
(lp3572
F0.014998329651004168
aI8
asS'05000802'
p3573
(lp3574
F-0.17924660925706817
aI175
asS'00010302'
p3575
(lp3576
F-0.3864917658263819
aI1416
asS'00010303'
p3577
(lp3578
F-0.2889491156496151
aI1863
asS'00010300'
p3579
(lp3580
F-0.6058335522606663
aI69
asS'00010301'
p3581
(lp3582
F-0.05171834481034382
aI378
asS'00010306'
p3583
(lp3584
F-0.6041884798601879
aI1297
asS'00010307'
p3585
(lp3586
F-0.8121632063081471
aI159
asS'00010304'
p3587
(lp3588
F-0.8002543221121872
aI2019
asS'00010305'
p3589
(lp3590
F-0.7825271261169064
aI1900
asS'04000104'
p3591
(lp3592
F0.0976144453935229
aI4
asS'04000101'
p3593
(lp3594
F0.35665415972151787
aI81
asS'04000100'
p3595
(lp3596
F0.4918612429778462
aI45
asS'04000103'
p3597
(lp3598
F0.07310878815962223
aI33
asS'04000102'
p3599
(lp3600
F0.18126331028141945
aI15
asS'10010901'
p3601
(lp3602
F-0.04042407324825682
aI5
asS'10010900'
p3603
(lp3604
F0.0046051752621091985
aI1059
asS'06001001'
p3605
(lp3606
F-0.04476874583907053
aI716
asS'06001000'
p3607
(lp3608
F-0.12393902984134349
aI1617
asS'06001002'
p3609
(lp3610
F-0.004376923399076055
aI66
asS'06000200'
p3611
(lp3612
F0.25237581501066547
aI121
asS'06000201'
p3613
(lp3614
F0.27813509298892064
aI33
asS'06000202'
p3615
(lp3616
F0.1945784081617008
aI2
asS'07000201'
p3617
(lp3618
F0.1653045558021591
aI43
asS'07000200'
p3619
(lp3620
F0.1495640867629259
aI98
asS'02030203'
p3621
(lp3622
F0.14166872109431838
aI34
asS'02030202'
p3623
(lp3624
F0.17374045703964908
aI140
asS'02030201'
p3625
(lp3626
F0.17897844023094978
aI126
asS'02030200'
p3627
(lp3628
F0.2153820238937945
aI28
asS'02030205'
p3629
(lp3630
F-0.152517568419458
aI19
asS'02030204'
p3631
(lp3632
F-0.04734612286027985
aI18
asS'06030100'
p3633
(lp3634
F0.6182613209758159
aI140
asS'06030101'
p3635
(lp3636
F0.6155890769774631
aI130
asS'06030102'
p3637
(lp3638
F0.2907614596172027
aI15
asS'03020302'
p3639
(lp3640
F0.07738836739775025
aI181
asS'03020303'
p3641
(lp3642
F-0.002316003792567193
aI86
asS'03020300'
p3643
(lp3644
F0.044134942721718445
aI178
asS'03020301'
p3645
(lp3646
F0.0013593822517877427
aI337
asS'03020304'
p3647
(lp3648
F0.056020601939630515
aI5
asS'03020305'
p3649
(lp3650
F-0.07874972643636544
aI1
asS'04011002'
p3651
(lp3652
F-0.04283830744897756
aI11
asS'04011000'
p3653
(lp3654
F-0.011833477541515274
aI75
asS'04011001'
p3655
(lp3656
F-0.017348627212621513
aI53
asS'08010500'
p3657
(lp3658
F0.19744654182416005
aI800
asS'08010501'
p3659
(lp3660
F0.0887612585167553
aI68
asS'08010502'
p3661
(lp3662
F0.03647975706260663
aI3
asS'05020601'
p3663
(lp3664
F0.019545522798883507
aI152
asS'05020600'
p3665
(lp3666
F0.11927920171112558
aI183
asS'05020602'
p3667
(lp3668
F0.027478145744022724
aI15
asS'03030000'
p3669
(lp3670
F0.04190387329778039
aI1
asS'03030001'
p3671
(lp3672
F0.22611442110095759
aI1022
asS'03030002'
p3673
(lp3674
F0.20341456786725662
aI617
asS'03030003'
p3675
(lp3676
F0.4364868180155169
aI239
asS'06010102'
p3677
(lp3678
F0.11140770345898995
aI37
asS'06010103'
p3679
(lp3680
F0.1674240405545948
aI6
asS'06010100'
p3681
(lp3682
F0.6994294322018965
aI296
asS'06010101'
p3683
(lp3684
F0.5444463502521557
aI203
asS'00000604'
p3685
(lp3686
F0.14215312193930166
aI1
asS'00000605'
p3687
(lp3688
F-0.007391698337706365
aI1
asS'00000602'
p3689
(lp3690
F-0.036205533824448924
aI1
asS'00000603'
p3691
(lp3692
F0.11290595370744386
aI1
asS'00000600'
p3693
(lp3694
F0.09522872375780592
aI1
asS'00000601'
p3695
(lp3696
F0.10925518226795913
aI1
asS'00000800'
p3697
(lp3698
F0.09342501658133084
aI1
asS'00000801'
p3699
(lp3700
F0.08115166308241653
aI1
asS'03030200'
p3701
(lp3702
F0.25041072690480504
aI50
asS'08000200'
p3703
(lp3704
F0.3358967221320614
aI95
asS'00000803'
p3705
(lp3706
F-0.048235667428524726
aI1
asS'01020300'
p3707
(lp3708
F0.15059006526029922
aI89
asS'01020301'
p3709
(lp3710
F-0.002938861108284064
aI276
asS'01020302'
p3711
(lp3712
F-0.1652865912583411
aI301
asS'01020303'
p3713
(lp3714
F-0.1235574792220121
aI305
asS'01020304'
p3715
(lp3716
F-0.27469088607362413
aI220
asS'01020305'
p3717
(lp3718
F-0.13372538122988528
aI102
asS'01020306'
p3719
(lp3720
F-0.19486949632711525
aI63
asS'01020307'
p3721
(lp3722
F0.08744183356696104
aI17
asS'02020604'
p3723
(lp3724
F0.09759914454836444
aI1
as.